Component: ARM Compiler 5.06 update 3 (build 300) Tool: armlink [4d35c9]

==============================================================================

Section Cross References

    main.o(i._Z12timerHandlerv) refers to main.o(i._Z9gpio_readP6gpio_t) for gpio_read(gpio_t*)
    main.o(i._Z12timerHandlerv) refers to assert.o(i.mbed_assert_internal) for mbed_assert_internal
    main.o(i._Z12timerHandlerv) refers to main.o(.data) for tickCt
    main.o(i._Z12timerHandlerv) refers to main.o(.bss) for led1
    main.o(i._Z12timerHandlerv) refers to main.o(.conststring) for .conststring
    main.o(i._Z13jsPrsdAndRlsd7btnId_t) refers to main.o(i._Z9gpio_readP6gpio_t) for gpio_read(gpio_t*)
    main.o(i._Z13jsPrsdAndRlsd7btnId_t) refers to main.o(.bss) for jsBtns
    main.o(i._Z13jsPrsdAndRlsd7btnId_t) refers to main.o(.data) for savedState
    main.o(i._Z7accInitR7MMA7455) refers to mma7455.o(i._ZN7MMA74557setModeENS_4ModeE) for MMA7455::setMode(MMA7455::Mode)
    main.o(i._Z7accInitR7MMA7455) refers to mma7455.o(i._ZN7MMA74559calibrateEv) for MMA7455::calibrate()
    main.o(i._Z9gpio_readP6gpio_t) refers to assert.o(i.mbed_assert_internal) for mbed_assert_internal
    main.o(i._Z9gpio_readP6gpio_t) refers to main.o(.conststring) for .conststring
    main.o(i.__sti___8_main_cpp_led1) refers to rt_memclr_w.o(.text) for __aeabi_memclr4
    main.o(i.__sti___8_main_cpp_led1) refers to gpio.o(i.gpio_init_out) for gpio_init_out
    main.o(i.__sti___8_main_cpp_led1) refers to main.o(i._ZN4mbed9DigitalInC1E7PinName) for mbed::DigitalIn::DigitalIn(PinName)
    main.o(i.__sti___8_main_cpp_led1) refers to analogin_api.o(i.analogin_init) for analogin_init
    main.o(i.__sti___8_main_cpp_led1) refers to mma7455.o(i._ZN7MMA7455C1E7PinNameS0_) for MMA7455::MMA7455(PinName, PinName)
    main.o(i.__sti___8_main_cpp_led1) refers to lm75b.o(i._ZN5LM75BC1E7PinNameS0_NS_7AddressEi) for LM75B::LM75B(PinName, PinName, LM75B::Address, int)
    main.o(i.__sti___8_main_cpp_led1) refers to display.o(i._ZN7Display10theDisplayEv) for Display::theDisplay()
    main.o(i.__sti___8_main_cpp_led1) refers to main.o(.bss) for led1
    main.o(i.__sti___8_main_cpp_led1) refers to main.o(.data) for pot
    main.o(i.main) refers to adafruit_gfx.o(i._ZN12Adafruit_GFX12setTextColorEtt) for Adafruit_GFX::setTextColor(unsigned short, unsigned short)
    main.o(i.main) refers to timerevent.o(i._ZN4mbed10TimerEventC2Ev) for mbed::TimerEvent::TimerEvent__sub_object()
    main.o(i.main) refers to main.o(t._ZN4mbed19FunctionPointerArg1IvvE6attachEPFvvE) for mbed::FunctionPointerArg1<void, void>::attach(void(*)())
    main.o(i.main) refers to ticker.o(i._ZN4mbed6Ticker5setupEj) for mbed::Ticker::setup(unsigned)
    main.o(i.main) refers to ticker.o(i._ZN4mbed6Ticker6detachEv) for mbed::Ticker::detach()
    main.o(i.main) refers to timerevent.o(i._ZN4mbed10TimerEventD2Ev) for mbed::TimerEvent::~TimerEvent__sub_object()
    main.o(i.main) refers to main.o(.data) for screen
    main.o(i.main) refers to ticker.o(.constdata__ZTVN4mbed6TickerE) for vtable for mbed::Ticker
    main.o(i.main) refers to main.o(i._Z12timerHandlerv) for timerHandler()
    main.o(.ARM.exidx) refers to main.o(i._Z9gpio_readP6gpio_t) for i._Z9gpio_readP6gpio_t
    main.o(.ARM.exidx) refers to main.o(i._Z12timerHandlerv) for i._Z12timerHandlerv
    main.o(.ARM.exidx) refers to main.o(i.main) for i.main
    main.o(.ARM.exidx) refers to main.o(i._Z7accInitR7MMA7455) for i._Z7accInitR7MMA7455
    main.o(.ARM.exidx) refers to main.o(i._Z13jsPrsdAndRlsd7btnId_t) for i._Z13jsPrsdAndRlsd7btnId_t
    main.o(.ARM.exidx) refers to main.o(i.__sti___8_main_cpp_led1) for i.__sti___8_main_cpp_led1
    main.o(.init_array) refers to main.o(i.__sti___8_main_cpp_led1) for __sti___8_main_cpp_led1
    main.o(.init_array) refers to init_aeabi.o(.text) for __cpp_initialize__aeabi_
    matrix3x3.o(i._Z24MakeMatrixFromQuaternion10Quaternion) refers to f2d.o(x$fpl$f2d) for __aeabi_f2d
    matrix3x3.o(i._Z24MakeMatrixFromQuaternion10Quaternion) refers to dmul.o(x$fpl$dmul) for __aeabi_dmul
    matrix3x3.o(i._Z24MakeMatrixFromQuaternion10Quaternion) refers to d2f.o(x$fpl$d2f) for __aeabi_d2f
    matrix3x3.o(i._Z24MakeMatrixFromQuaternion10Quaternion) refers to matrix3x3.o(i._ZN9Matrix3x3C1Efffffffff) for Matrix3x3::Matrix3x3(float, float, float, float, float, float, float, float, float)
    matrix3x3.o(i._Zdv9Matrix3x3f) refers to matrix3x3.o(i._ZN9Matrix3x3C1Efffffffff) for Matrix3x3::Matrix3x3(float, float, float, float, float, float, float, float, float)
    matrix3x3.o(i._ZmI9Matrix3x3S_) refers to matrix3x3.o(i._ZN9Matrix3x3C1Efffffffff) for Matrix3x3::Matrix3x3(float, float, float, float, float, float, float, float, float)
    matrix3x3.o(i._Zml9Matrix3x3S_) refers to matrix3x3.o(i._ZN9Matrix3x3C1Efffffffff) for Matrix3x3::Matrix3x3(float, float, float, float, float, float, float, float, float)
    matrix3x3.o(i._Zml9Matrix3x3f) refers to matrix3x3.o(i._ZN9Matrix3x3C1Efffffffff) for Matrix3x3::Matrix3x3(float, float, float, float, float, float, float, float, float)
    matrix3x3.o(i._Zmlf9Matrix3x3) refers to matrix3x3.o(i._ZN9Matrix3x3C1Efffffffff) for Matrix3x3::Matrix3x3(float, float, float, float, float, float, float, float, float)
    matrix3x3.o(i._ZpL9Matrix3x3S_) refers to matrix3x3.o(i._ZN9Matrix3x3C1Efffffffff) for Matrix3x3::Matrix3x3(float, float, float, float, float, float, float, float, float)
    matrix3x3.o(.ARM.exidx) refers to matrix3x3.o(i._ZpL9Matrix3x3S_) for i._ZpL9Matrix3x3S_
    matrix3x3.o(.ARM.exidx) refers to matrix3x3.o(i._ZmI9Matrix3x3S_) for i._ZmI9Matrix3x3S_
    matrix3x3.o(.ARM.exidx) refers to matrix3x3.o(i._Zdv9Matrix3x3f) for i._Zdv9Matrix3x3f
    matrix3x3.o(.ARM.exidx) refers to matrix3x3.o(i._Zml9Matrix3x3S_) for i._Zml9Matrix3x3S_
    matrix3x3.o(.ARM.exidx) refers to matrix3x3.o(i._Zml9Matrix3x3f) for i._Zml9Matrix3x3f
    matrix3x3.o(.ARM.exidx) refers to matrix3x3.o(i._Zmlf9Matrix3x3) for i._Zmlf9Matrix3x3
    matrix3x3.o(.ARM.exidx) refers to matrix3x3.o(i._Zml9Matrix3x36Vector) for i._Zml9Matrix3x36Vector
    matrix3x3.o(.ARM.exidx) refers to matrix3x3.o(i._Zml6Vector9Matrix3x3) for i._Zml6Vector9Matrix3x3
    matrix3x3.o(.ARM.exidx) refers to matrix3x3.o(i._Z24MakeMatrixFromQuaternion10Quaternion) for i._Z24MakeMatrixFromQuaternion10Quaternion
    quaternion.o(i._Z16DegreesToRadiansf) refers to f2d.o(x$fpl$f2d) for __aeabi_f2d
    quaternion.o(i._Z16DegreesToRadiansf) refers to dmul.o(x$fpl$dmul) for __aeabi_dmul
    quaternion.o(i._Z16DegreesToRadiansf) refers to ddiv.o(x$fpl$ddiv) for __aeabi_ddiv
    quaternion.o(i._Z16DegreesToRadiansf) refers to d2f.o(x$fpl$d2f) for __aeabi_d2f
    quaternion.o(i._Z16RadiansToDegreesf) refers to f2d.o(x$fpl$f2d) for __aeabi_f2d
    quaternion.o(i._Z16RadiansToDegreesf) refers to ddiv.o(x$fpl$ddiv) for __aeabi_ddiv
    quaternion.o(i._Z16RadiansToDegreesf) refers to d2f.o(x$fpl$d2f) for __aeabi_d2f
    quaternion.o(i._Z7QRotate10QuaternionS_) refers to quaternion.o(i._ZN10QuaternionC1Effff) for Quaternion::Quaternion(float, float, float, float)
    quaternion.o(i._Z7QRotate10QuaternionS_) refers to quaternion.o(i._Zml10QuaternionS_) for operator *(Quaternion, Quaternion)
    quaternion.o(i._Z8QGetAxis10Quaternion) refers to quaternion.o(i._ZN10Quaternion9GetVectorEv) for Quaternion::GetVector()
    quaternion.o(i._Z8QGetAxis10Quaternion) refers to sqrtf.o(i.__hardfp_sqrtf) for __hardfp_sqrtf
    quaternion.o(i._Z9QGetAngle10Quaternion) refers to acosf.o(i.__hardfp_acosf) for __hardfp_acosf
    quaternion.o(i._ZN10Quaternion20MakeEulerAnglesFromQES_) refers to f2d.o(x$fpl$f2d) for __aeabi_f2d
    quaternion.o(i._ZN10Quaternion20MakeEulerAnglesFromQES_) refers to daddsub_clz.o(x$fpl$dadd) for __aeabi_dadd
    quaternion.o(i._ZN10Quaternion20MakeEulerAnglesFromQES_) refers to daddsub_clz.o(x$fpl$dsub) for __aeabi_dsub
    quaternion.o(i._ZN10Quaternion20MakeEulerAnglesFromQES_) refers to fabs.o(i.__hardfp_fabs) for __hardfp_fabs
    quaternion.o(i._ZN10Quaternion20MakeEulerAnglesFromQES_) refers to drleqf.o(x$fpl$drleqf) for __aeabi_cdrcmple
    quaternion.o(i._ZN10Quaternion20MakeEulerAnglesFromQES_) refers to quaternion.o(i._Z16RadiansToDegreesf) for RadiansToDegrees(float)
    quaternion.o(i._ZN10Quaternion20MakeEulerAnglesFromQES_) refers to dmul.o(x$fpl$dmul) for __aeabi_dmul
    quaternion.o(i._ZN10Quaternion20MakeEulerAnglesFromQES_) refers to ddiv.o(x$fpl$ddiv) for __aeabi_ddiv
    quaternion.o(i._ZN10Quaternion20MakeEulerAnglesFromQES_) refers to d2f.o(x$fpl$d2f) for __aeabi_d2f
    quaternion.o(i._ZN10Quaternion20MakeEulerAnglesFromQES_) refers to basic.o(x$fpl$basic) for __aeabi_dneg
    quaternion.o(i._ZN10Quaternion20MakeEulerAnglesFromQES_) refers to atan2.o(i.__hardfp_atan2) for __hardfp_atan2
    quaternion.o(i._ZN10Quaternion20MakeEulerAnglesFromQES_) refers to asin.o(i.__hardfp_asin) for __hardfp_asin
    quaternion.o(i._ZN10Quaternion20MakeQFromEulerAnglesEfff) refers to quaternion.o(i._ZN10QuaternionC1Ev) for Quaternion::Quaternion()
    quaternion.o(i._ZN10Quaternion20MakeQFromEulerAnglesEfff) refers to quaternion.o(i._Z16DegreesToRadiansf) for DegreesToRadians(float)
    quaternion.o(i._ZN10Quaternion20MakeQFromEulerAnglesEfff) refers to f2d.o(x$fpl$f2d) for __aeabi_f2d
    quaternion.o(i._ZN10Quaternion20MakeQFromEulerAnglesEfff) refers to dmul.o(x$fpl$dmul) for __aeabi_dmul
    quaternion.o(i._ZN10Quaternion20MakeQFromEulerAnglesEfff) refers to cos.o(i.__hardfp_cos) for __hardfp_cos
    quaternion.o(i._ZN10Quaternion20MakeQFromEulerAnglesEfff) refers to sin.o(i.__hardfp_sin) for __hardfp_sin
    quaternion.o(i._ZN10Quaternion20MakeQFromEulerAnglesEfff) refers to daddsub_clz.o(x$fpl$dadd) for __aeabi_dadd
    quaternion.o(i._ZN10Quaternion20MakeQFromEulerAnglesEfff) refers to d2f.o(x$fpl$d2f) for __aeabi_d2f
    quaternion.o(i._ZN10Quaternion20MakeQFromEulerAnglesEfff) refers to daddsub_clz.o(x$fpl$dsub) for __aeabi_dsub
    quaternion.o(i._ZN10Quaternion8QVRotateES_6Vector) refers to quaternion.o(i._ZN10QuaternionC1Ev) for Quaternion::Quaternion()
    quaternion.o(i._ZN10Quaternion8QVRotateES_6Vector) refers to quaternion.o(i._Zml10Quaternion6Vector) for operator *(Quaternion, Vector)
    quaternion.o(i._ZN10Quaternion8QVRotateES_6Vector) refers to quaternion.o(i._Zml10QuaternionS_) for operator *(Quaternion, Quaternion)
    quaternion.o(i._ZN10Quaternion8QVRotateES_6Vector) refers to quaternion.o(i._ZN10Quaternion9GetVectorEv) for Quaternion::GetVector()
    quaternion.o(i._Zdv10Quaternionf) refers to quaternion.o(i._ZN10QuaternionC1Effff) for Quaternion::Quaternion(float, float, float, float)
    quaternion.o(i._ZmI10QuaternionS_) refers to quaternion.o(i._ZN10QuaternionC1Effff) for Quaternion::Quaternion(float, float, float, float)
    quaternion.o(i._Zml10Quaternion6Vector) refers to quaternion.o(i._ZN10QuaternionC1Effff) for Quaternion::Quaternion(float, float, float, float)
    quaternion.o(i._Zml10QuaternionS_) refers to quaternion.o(i._ZN10QuaternionC1Effff) for Quaternion::Quaternion(float, float, float, float)
    quaternion.o(i._Zml10Quaternionf) refers to quaternion.o(i._ZN10QuaternionC1Effff) for Quaternion::Quaternion(float, float, float, float)
    quaternion.o(i._Zml6Vector10Quaternion) refers to quaternion.o(i._ZN10QuaternionC1Effff) for Quaternion::Quaternion(float, float, float, float)
    quaternion.o(i._Zmlf10Quaternion) refers to quaternion.o(i._ZN10QuaternionC1Effff) for Quaternion::Quaternion(float, float, float, float)
    quaternion.o(i._Zpl10QuaternionS_) refers to quaternion.o(i._ZN10QuaternionC1Effff) for Quaternion::Quaternion(float, float, float, float)
    quaternion.o(.ARM.exidx) refers to quaternion.o(i._Z16DegreesToRadiansf) for i._Z16DegreesToRadiansf
    quaternion.o(.ARM.exidx) refers to quaternion.o(i._Z16RadiansToDegreesf) for i._Z16RadiansToDegreesf
    quaternion.o(.ARM.exidx) refers to quaternion.o(i._Zpl10QuaternionS_) for i._Zpl10QuaternionS_
    quaternion.o(.ARM.exidx) refers to quaternion.o(i._ZmI10QuaternionS_) for i._ZmI10QuaternionS_
    quaternion.o(.ARM.exidx) refers to quaternion.o(i._Zml10QuaternionS_) for i._Zml10QuaternionS_
    quaternion.o(.ARM.exidx) refers to quaternion.o(i._Zdv10Quaternionf) for i._Zdv10Quaternionf
    quaternion.o(.ARM.exidx) refers to quaternion.o(i._Z9QGetAngle10Quaternion) for i._Z9QGetAngle10Quaternion
    quaternion.o(.ARM.exidx) refers to quaternion.o(i._Z8QGetAxis10Quaternion) for i._Z8QGetAxis10Quaternion
    quaternion.o(.ARM.exidx) refers to quaternion.o(i._Z7QRotate10QuaternionS_) for i._Z7QRotate10QuaternionS_
    quaternion.o(.ARM.exidx) refers to quaternion.o(i._Zml10Quaternion6Vector) for i._Zml10Quaternion6Vector
    quaternion.o(.ARM.exidx) refers to quaternion.o(i._Zml6Vector10Quaternion) for i._Zml6Vector10Quaternion
    quaternion.o(.ARM.exidx) refers to quaternion.o(i._Zml10Quaternionf) for i._Zml10Quaternionf
    quaternion.o(.ARM.exidx) refers to quaternion.o(i._Zmlf10Quaternion) for i._Zmlf10Quaternion
    quaternion.o(.ARM.exidx) refers to quaternion.o(i._ZN10Quaternion20MakeQFromEulerAnglesEfff) for i._ZN10Quaternion20MakeQFromEulerAnglesEfff
    quaternion.o(.ARM.exidx) refers to quaternion.o(i._ZN10Quaternion20MakeEulerAnglesFromQES_) for i._ZN10Quaternion20MakeEulerAnglesFromQES_
    quaternion.o(.ARM.exidx) refers to quaternion.o(i._ZN10Quaternion8QVRotateES_6Vector) for i._ZN10Quaternion8QVRotateES_6Vector
    physics.o(i._Z14StepSimulationf) refers to physics.o(i._Z16CalcObjectForcesv) for CalcObjectForces()
    physics.o(i._Z14StepSimulationf) refers to physics.o(i._Zdv6Vectorf) for operator /(Vector, float)
    physics.o(i._Z14StepSimulationf) refers to physics.o(i._Zml6Vectorf) for operator *(Vector, float)
    physics.o(i._Z14StepSimulationf) refers to rt_memcpy_w.o(.text) for __aeabi_memcpy4
    physics.o(i._Z14StepSimulationf) refers to matrix3x3.o(i._Zml9Matrix3x36Vector) for operator *(Matrix3x3, Vector)
    physics.o(i._Z14StepSimulationf) refers to physics.o(i._Zeo6VectorS_) for operator ^(Vector, Vector)
    physics.o(i._Z14StepSimulationf) refers to physics.o(i._Zmi6VectorS_) for operator -(Vector, Vector)
    physics.o(i._Z14StepSimulationf) refers to quaternion.o(i._Zml10Quaternion6Vector) for operator *(Quaternion, Vector)
    physics.o(i._Z14StepSimulationf) refers to quaternion.o(i._Zml10Quaternionf) for operator *(Quaternion, float)
    physics.o(i._Z14StepSimulationf) refers to physics.o(i._ZNK10QuaternioncoEv) for Quaternion::operator ~() const
    physics.o(i._Z14StepSimulationf) refers to quaternion.o(i._ZN10Quaternion8QVRotateES_6Vector) for Quaternion::QVRotate(Quaternion, Vector)
    physics.o(i._Z14StepSimulationf) refers to physics.o(.bss) for Bodies
    physics.o(i._Z14StepSimulationf) refers to matrix3x3.o(i._Z24MakeMatrixFromQuaternion10Quaternion) for MakeMatrixFromQuaternion(Quaternion)
    physics.o(i._Z14StepSimulationf) refers to matrix3x3.o(i._Zml9Matrix3x3S_) for operator *(Matrix3x3, Matrix3x3)
    physics.o(i._Z14StepSimulationf) refers to quaternion.o(i._ZN10Quaternion20MakeEulerAnglesFromQES_) for Quaternion::MakeEulerAnglesFromQ(Quaternion)
    physics.o(i._Z14StepSimulationf) refers to physics.o(i._Z18CheckForCollisionsv) for CheckForCollisions()
    physics.o(i._Z14StepSimulationf) refers to physics.o(i._Z16ResolveCollsionsv) for ResolveCollsions()
    physics.o(i._Z16CalcObjectForcesv) refers to f2d.o(x$fpl$f2d) for __aeabi_f2d
    physics.o(i._Z16CalcObjectForcesv) refers to physics.o(i._ZSt3powfi) for std::pow(float, int)
    physics.o(i._Z16CalcObjectForcesv) refers to dmul.o(x$fpl$dmul) for __aeabi_dmul
    physics.o(i._Z16CalcObjectForcesv) refers to d2f.o(x$fpl$d2f) for __aeabi_d2f
    physics.o(i._Z16CalcObjectForcesv) refers to physics.o(i._Zml6Vectorf) for operator *(Vector, float)
    physics.o(i._Z16CalcObjectForcesv) refers to quaternion.o(i._ZN10Quaternion8QVRotateES_6Vector) for Quaternion::QVRotate(Quaternion, Vector)
    physics.o(i._Z16CalcObjectForcesv) refers to physics.o(.bss) for Bodies
    physics.o(i._Z16CalcObjectForcesv) refers to physics.o(i._Zdv6Vectorf) for operator /(Vector, float)
    physics.o(i._Z16CalcObjectForcesv) refers to rt_memcpy_w.o(.text) for __aeabi_memcpy4
    physics.o(i._Z16CalcObjectForcesv) refers to matrix3x3.o(i._Zml9Matrix3x36Vector) for operator *(Matrix3x3, Vector)
    physics.o(i._Z16CalcObjectForcesv) refers to physics.o(i._Zeo6VectorS_) for operator ^(Vector, Vector)
    physics.o(i._Z16CalcObjectForcesv) refers to physics.o(i._Zmi6VectorS_) for operator -(Vector, Vector)
    physics.o(i._Z16CalcObjectForcesv) refers to physics.o(i._Z18FlushCollisionDatav) for FlushCollisionData()
    physics.o(i._Z16CalcObjectForcesv) refers to physics.o(i._Z24CheckGroundPlaneContactsP10_Collisioni) for CheckGroundPlaneContacts(_Collision*, int)
    physics.o(i._Z16CalcObjectForcesv) refers to assert.o(.text) for __aeabi_assert
    physics.o(i._Z16CalcObjectForcesv) refers to physics.o(i._Zml6VectorS_) for operator *(Vector, Vector)
    physics.o(i._Z16CalcObjectForcesv) refers to physics.o(i._Zmlf6Vector) for operator *(float, Vector)
    physics.o(i._Z16CalcObjectForcesv) refers to physics.o(i._ZSt4fabsf) for std::fabs(float)
    physics.o(i._Z16CalcObjectForcesv) refers to drleqf.o(x$fpl$drleqf) for __aeabi_cdrcmple
    physics.o(i._Z16CalcObjectForcesv) refers to ddiv.o(x$fpl$ddiv) for __aeabi_ddiv
    physics.o(i._Z16CalcObjectForcesv) refers to physics.o(.data) for NumCollisions
    physics.o(i._Z16CalcObjectForcesv) refers to physics.o(i._ZNK10QuaternioncoEv) for Quaternion::operator ~() const
    physics.o(i._Z16ResolveCollsionsv) refers to physics.o(i._Zmi6VectorS_) for operator -(Vector, Vector)
    physics.o(i._Z16ResolveCollsionsv) refers to physics.o(i._Zml6VectorS_) for operator *(Vector, Vector)
    physics.o(i._Z16ResolveCollsionsv) refers to physics.o(i._Zeo6VectorS_) for operator ^(Vector, Vector)
    physics.o(i._Z16ResolveCollsionsv) refers to rt_memcpy_w.o(.text) for __aeabi_memcpy4
    physics.o(i._Z16ResolveCollsionsv) refers to matrix3x3.o(i._Zml6Vector9Matrix3x3) for operator *(Vector, Matrix3x3)
    physics.o(i._Z16ResolveCollsionsv) refers to f2d.o(x$fpl$f2d) for __aeabi_f2d
    physics.o(i._Z16ResolveCollsionsv) refers to physics.o(i._ZSt4fabsf) for std::fabs(float)
    physics.o(i._Z16ResolveCollsionsv) refers to drleqf.o(x$fpl$drleqf) for __aeabi_cdrcmple
    physics.o(i._Z16ResolveCollsionsv) refers to dmul.o(x$fpl$dmul) for __aeabi_dmul
    physics.o(i._Z16ResolveCollsionsv) refers to physics.o(.bss) for Collisions
    physics.o(i._Z16ResolveCollsionsv) refers to d2f.o(x$fpl$d2f) for __aeabi_d2f
    physics.o(i._Z16ResolveCollsionsv) refers to physics.o(i._Zmlf6Vector) for operator *(float, Vector)
    physics.o(i._Z16ResolveCollsionsv) refers to physics.o(i._Zpl6VectorS_) for operator +(Vector, Vector)
    physics.o(i._Z16ResolveCollsionsv) refers to physics.o(i._Zdv6Vectorf) for operator /(Vector, float)
    physics.o(i._Z16ResolveCollsionsv) refers to physics.o(i._ZNK10QuaternioncoEv) for Quaternion::operator ~() const
    physics.o(i._Z16ResolveCollsionsv) refers to quaternion.o(i._ZN10Quaternion8QVRotateES_6Vector) for Quaternion::QVRotate(Quaternion, Vector)
    physics.o(i._Z16ResolveCollsionsv) refers to basic.o(x$fpl$basic) for __aeabi_dneg
    physics.o(i._Z16ResolveCollsionsv) refers to physics.o(.data) for NumCollisions
    physics.o(i._Z17InitialiseObjectsi) refers to quaternion.o(i._ZN10Quaternion20MakeQFromEulerAnglesEfff) for Quaternion::MakeQFromEulerAngles(float, float, float)
    physics.o(i._Z17InitialiseObjectsi) refers to rt_memcpy_w.o(.text) for __aeabi_memcpy4
    physics.o(i._Z17InitialiseObjectsi) refers to physics.o(.bss) for Bodies
    physics.o(i._Z18CheckForCollisionsv) refers to physics.o(i._Z18FlushCollisionDatav) for FlushCollisionData()
    physics.o(i._Z18CheckForCollisionsv) refers to physics.o(i._Z24CollisionRecordedAlreadyii) for CollisionRecordedAlready(int, int)
    physics.o(i._Z18CheckForCollisionsv) refers to physics.o(i._Zmi6VectorS_) for operator -(Vector, Vector)
    physics.o(i._Z18CheckForCollisionsv) refers to physics.o(i._Zpl6VectorS_) for operator +(Vector, Vector)
    physics.o(i._Z18CheckForCollisionsv) refers to physics.o(i._Zdv6Vectorf) for operator /(Vector, float)
    physics.o(i._Z18CheckForCollisionsv) refers to physics.o(i._Zeo6VectorS_) for operator ^(Vector, Vector)
    physics.o(i._Z18CheckForCollisionsv) refers to physics.o(i._Zml6VectorS_) for operator *(Vector, Vector)
    physics.o(i._Z18CheckForCollisionsv) refers to assert.o(.text) for __aeabi_assert
    physics.o(i._Z18CheckForCollisionsv) refers to physics.o(i._Z26CheckGroundPlaneCollisionsP10_Collisioni) for CheckGroundPlaneCollisions(_Collision*, int)
    physics.o(i._Z18CheckForCollisionsv) refers to physics.o(.bss) for Collisions
    physics.o(i._Z18CheckForCollisionsv) refers to physics.o(.data) for NumCollisions
    physics.o(i._Z18FlushCollisionDatav) refers to physics.o(.bss) for Collisions
    physics.o(i._Z24CheckGroundPlaneContactsP10_Collisioni) refers to aeabi_vec_ctor_nocookie_nodtor.o(i.__aeabi_vec_ctor_nocookie_nodtor) for __aeabi_vec_ctor_nocookie_nodtor
    physics.o(i._Z24CheckGroundPlaneContactsP10_Collisioni) refers to physics.o(i._Zmi6VectorS_) for operator -(Vector, Vector)
    physics.o(i._Z24CheckGroundPlaneContactsP10_Collisioni) refers to physics.o(i._Zeo6VectorS_) for operator ^(Vector, Vector)
    physics.o(i._Z24CheckGroundPlaneContactsP10_Collisioni) refers to physics.o(i._Zpl6VectorS_) for operator +(Vector, Vector)
    physics.o(i._Z24CheckGroundPlaneContactsP10_Collisioni) refers to physics.o(i._Zml6VectorS_) for operator *(Vector, Vector)
    physics.o(i._Z24CheckGroundPlaneContactsP10_Collisioni) refers to physics.o(i._ZSt4fabsf) for std::fabs(float)
    physics.o(i._Z24CheckGroundPlaneContactsP10_Collisioni) refers to assert.o(.text) for __aeabi_assert
    physics.o(i._Z24CheckGroundPlaneContactsP10_Collisioni) refers to physics.o(.bss) for Bodies
    physics.o(i._Z24CheckGroundPlaneContactsP10_Collisioni) refers to physics.o(.data) for NumCollisions
    physics.o(i._Z24CollisionRecordedAlreadyii) refers to physics.o(.bss) for Collisions
    physics.o(i._Z24CollisionRecordedAlreadyii) refers to physics.o(.data) for NumCollisions
    physics.o(i._Z26CheckGroundPlaneCollisionsP10_Collisioni) refers to physics.o(i._Zmi6VectorS_) for operator -(Vector, Vector)
    physics.o(i._Z26CheckGroundPlaneCollisionsP10_Collisioni) refers to physics.o(i._Zeo6VectorS_) for operator ^(Vector, Vector)
    physics.o(i._Z26CheckGroundPlaneCollisionsP10_Collisioni) refers to physics.o(i._Zpl6VectorS_) for operator +(Vector, Vector)
    physics.o(i._Z26CheckGroundPlaneCollisionsP10_Collisioni) refers to physics.o(i._Zml6VectorS_) for operator *(Vector, Vector)
    physics.o(i._Z26CheckGroundPlaneCollisionsP10_Collisioni) refers to assert.o(.text) for __aeabi_assert
    physics.o(i._Z26CheckGroundPlaneCollisionsP10_Collisioni) refers to physics.o(.bss) for Bodies
    physics.o(i._Z26CheckGroundPlaneCollisionsP10_Collisioni) refers to physics.o(.data) for NumCollisions
    physics.o(i.__sti___11_Physics_cpp_Bodies) refers to aeabi_vec_ctor_nocookie_nodtor.o(i.__aeabi_vec_ctor_nocookie_nodtor) for __aeabi_vec_ctor_nocookie_nodtor
    physics.o(i.__sti___11_Physics_cpp_Bodies) refers to physics.o(i._ZN10_RigidBodyC1Ev) for _RigidBody::_RigidBody()
    physics.o(i.__sti___11_Physics_cpp_Bodies) refers to physics.o(.bss) for Bodies
    physics.o(i.__sti___11_Physics_cpp_Bodies) refers to physics.o(i._ZN10_CollisionC1Ev) for _Collision::_Collision()
    physics.o(.ARM.exidx) refers to physics.o(i._Z17InitialiseObjectsi) for i._Z17InitialiseObjectsi
    physics.o(.ARM.exidx) refers to physics.o(i._Z18FlushCollisionDatav) for i._Z18FlushCollisionDatav
    physics.o(.ARM.exidx) refers to physics.o(i._Z24CheckGroundPlaneContactsP10_Collisioni) for i._Z24CheckGroundPlaneContactsP10_Collisioni
    physics.o(.ARM.exidx) refers to physics.o(i._Z16CalcObjectForcesv) for i._Z16CalcObjectForcesv
    physics.o(.ARM.exidx) refers to physics.o(i._Z24CollisionRecordedAlreadyii) for i._Z24CollisionRecordedAlreadyii
    physics.o(.ARM.exidx) refers to physics.o(i._Z26CheckGroundPlaneCollisionsP10_Collisioni) for i._Z26CheckGroundPlaneCollisionsP10_Collisioni
    physics.o(.ARM.exidx) refers to physics.o(i._Z18CheckForCollisionsv) for i._Z18CheckForCollisionsv
    physics.o(.ARM.exidx) refers to physics.o(i._Z16ResolveCollsionsv) for i._Z16ResolveCollsionsv
    physics.o(.ARM.exidx) refers to physics.o(i._Z14StepSimulationf) for i._Z14StepSimulationf
    physics.o(.ARM.exidx) refers to physics.o(i.__sti___11_Physics_cpp_Bodies) for i.__sti___11_Physics_cpp_Bodies
    physics.o(.init_array) refers to physics.o(i.__sti___11_Physics_cpp_Bodies) for __sti___11_Physics_cpp_Bodies
    physics.o(.init_array) refers to init_aeabi.o(.text) for __cpp_initialize__aeabi_
    startup_lpc407x_8x_177x_8x.o(RESET) refers to startup_lpc407x_8x_177x_8x.o(.text) for Reset_Handler
    startup_lpc407x_8x_177x_8x.o(.text) refers to system_lpc407x_8x_177x_8x.o(i.SystemInit) for SystemInit
    startup_lpc407x_8x_177x_8x.o(.text) refers to __main.o(!!!main) for __main
    system_lpc407x_8x_177x_8x.o(i.SystemCoreClockUpdate) refers to system_lpc407x_8x_177x_8x.o(.data) for SystemCoreClock
    system_lpc407x_8x_177x_8x.o(i.SystemInit) refers to system_lpc407x_8x_177x_8x.o(i.fpu_init) for fpu_init
    system_lpc407x_8x_177x_8x.o(i.SystemInit) refers to system_lpc407x_8x_177x_8x.o(i.SystemCoreClockUpdate) for SystemCoreClockUpdate
    sys.o(i.__user_setup_stackheap) refers to sdram.o(i.__reserved_stack_size) for __reserved_stack_size
    sys.o(.ARM.exidx) refers to sys.o(i.__user_setup_stackheap) for i.__user_setup_stackheap
    sys_helper.o(.ARM.exidx) refers to sys_helper.o(i.__reserved_stack_size) for i.__reserved_stack_size
    assert.o(i.mbed_assert_internal) refers to error.o(i.error) for error
    gpio.o(i._gpio_init_in) refers to gpio_api.o(i.gpio_init) for gpio_init
    gpio.o(i._gpio_init_in) refers to gpio_api.o(i.gpio_dir) for gpio_dir
    gpio.o(i._gpio_init_in) refers to gpio_api.o(i.gpio_mode) for gpio_mode
    gpio.o(i._gpio_init_out) refers to gpio_api.o(i.gpio_init) for gpio_init
    gpio.o(i._gpio_init_out) refers to gpio.o(i.gpio_write) for gpio_write
    gpio.o(i._gpio_init_out) refers to gpio_api.o(i.gpio_dir) for gpio_dir
    gpio.o(i._gpio_init_out) refers to gpio_api.o(i.gpio_mode) for gpio_mode
    gpio.o(i.gpio_init_in) refers to gpio.o(i.gpio_init_in_ex) for gpio_init_in_ex
    gpio.o(i.gpio_init_in_ex) refers to gpio.o(i._gpio_init_in) for _gpio_init_in
    gpio.o(i.gpio_init_inout) refers to gpio.o(i._gpio_init_in) for _gpio_init_in
    gpio.o(i.gpio_init_inout) refers to gpio.o(i.gpio_write) for gpio_write
    gpio.o(i.gpio_init_inout) refers to gpio.o(i._gpio_init_out) for _gpio_init_out
    gpio.o(i.gpio_init_out) refers to gpio.o(i.gpio_init_out_ex) for gpio_init_out_ex
    gpio.o(i.gpio_init_out_ex) refers to gpio.o(i._gpio_init_out) for _gpio_init_out
    gpio.o(i.gpio_write) refers to assert.o(i.mbed_assert_internal) for mbed_assert_internal
    ticker.o(i._ZN4mbed6Ticker5setupEj) refers to timerevent.o(i._ZN4mbed10TimerEvent6removeEv) for mbed::TimerEvent::remove()
    ticker.o(i._ZN4mbed6Ticker5setupEj) refers to ticker_api.o(i.ticker_read) for ticker_read
    ticker.o(i._ZN4mbed6Ticker5setupEj) refers to timerevent.o(i._ZN4mbed10TimerEvent6insertEj) for mbed::TimerEvent::insert(unsigned)
    ticker.o(i._ZN4mbed6Ticker6detachEv) refers to timerevent.o(i._ZN4mbed10TimerEvent6removeEv) for mbed::TimerEvent::remove()
    ticker.o(i._ZN4mbed6Ticker7handlerEv) refers to timerevent.o(i._ZN4mbed10TimerEvent6insertEj) for mbed::TimerEvent::insert(unsigned)
    ticker.o(.ARM.exidx) refers to ticker.o(i._ZN4mbed6Ticker6detachEv) for i._ZN4mbed6Ticker6detachEv
    ticker.o(.ARM.exidx) refers to ticker.o(i._ZN4mbed6Ticker5setupEj) for i._ZN4mbed6Ticker5setupEj
    ticker.o(.ARM.exidx) refers to ticker.o(i._ZN4mbed6Ticker7handlerEv) for i._ZN4mbed6Ticker7handlerEv
    timerevent.o(i._ZN4mbed10TimerEvent6insertEj) refers to ticker_api.o(i.ticker_insert_event) for ticker_insert_event
    timerevent.o(i._ZN4mbed10TimerEvent6removeEv) refers to ticker_api.o(i.ticker_remove_event) for ticker_remove_event
    timerevent.o(i._ZN4mbed10TimerEventC2EPK13ticker_data_t) refers to ticker_api.o(i.ticker_set_handler) for ticker_set_handler
    timerevent.o(i._ZN4mbed10TimerEventC2EPK13ticker_data_t) refers to timerevent.o(.constdata__ZTVN4mbed10TimerEventE) for vtable for mbed::TimerEvent
    timerevent.o(i._ZN4mbed10TimerEventC2EPK13ticker_data_t) refers to timerevent.o(i._ZN4mbed10TimerEvent3irqEj) for mbed::TimerEvent::irq(unsigned)
    timerevent.o(i._ZN4mbed10TimerEventC2Ev) refers to us_ticker_api.o(i.get_us_ticker_data) for get_us_ticker_data
    timerevent.o(i._ZN4mbed10TimerEventC2Ev) refers to ticker_api.o(i.ticker_set_handler) for ticker_set_handler
    timerevent.o(i._ZN4mbed10TimerEventC2Ev) refers to timerevent.o(.constdata__ZTVN4mbed10TimerEventE) for vtable for mbed::TimerEvent
    timerevent.o(i._ZN4mbed10TimerEventC2Ev) refers to timerevent.o(i._ZN4mbed10TimerEvent3irqEj) for mbed::TimerEvent::irq(unsigned)
    timerevent.o(i._ZN4mbed10TimerEventD0Ev) refers to timerevent.o(i._ZN4mbed10TimerEventD2Ev) for mbed::TimerEvent::~TimerEvent__sub_object()
    timerevent.o(i._ZN4mbed10TimerEventD0Ev) refers to delete.o(i._ZdlPv) for operator delete (void*)
    timerevent.o(i._ZN4mbed10TimerEventD2Ev) refers to timerevent.o(i._ZN4mbed10TimerEvent6removeEv) for mbed::TimerEvent::remove()
    timerevent.o(i._ZN4mbed10TimerEventD2Ev) refers to timerevent.o(.constdata__ZTVN4mbed10TimerEventE) for vtable for mbed::TimerEvent
    timerevent.o(.ARM.exidx) refers to timerevent.o(i._ZN4mbed10TimerEvent3irqEj) for i._ZN4mbed10TimerEvent3irqEj
    timerevent.o(.ARM.exidx) refers to timerevent.o(i._ZN4mbed10TimerEventC2Ev) for i._ZN4mbed10TimerEventC2Ev
    timerevent.o(.ARM.exidx) refers to timerevent.o(i._ZN4mbed10TimerEventC2EPK13ticker_data_t) for i._ZN4mbed10TimerEventC2EPK13ticker_data_t
    timerevent.o(.ARM.exidx) refers to timerevent.o(i._ZN4mbed10TimerEvent6removeEv) for i._ZN4mbed10TimerEvent6removeEv
    timerevent.o(.ARM.exidx) refers to timerevent.o(i._ZN4mbed10TimerEventD2Ev) for i._ZN4mbed10TimerEventD2Ev
    timerevent.o(.ARM.exidx) refers to timerevent.o(i._ZN4mbed10TimerEventD0Ev) for i._ZN4mbed10TimerEventD0Ev
    timerevent.o(.ARM.exidx) refers to timerevent.o(i._ZN4mbed10TimerEvent6insertEj) for i._ZN4mbed10TimerEvent6insertEj
    analogin_api.o(i.adc_read_u32) refers to analogin_api.o(i.adc_read) for adc_read
    analogin_api.o(i.adc_read_u32) refers to analogin_api.o(i.order) for order
    analogin_api.o(i.analogin_init) refers to pinmap_common.o(i.pinmap_peripheral) for pinmap_peripheral
    analogin_api.o(i.analogin_init) refers to assert.o(i.mbed_assert_internal) for mbed_assert_internal
    analogin_api.o(i.analogin_init) refers to pinmap_common.o(i.pinmap_pinout) for pinmap_pinout
    analogin_api.o(i.analogin_init) refers to analogin_api.o(.constdata) for PinMap_ADC
    analogin_api.o(i.analogin_init) refers to analogin_api.o(.conststring) for .conststring
    analogin_api.o(i.analogin_init) refers to system_lpc407x_8x_177x_8x.o(.data) for PeripheralClock
    analogin_api.o(i.analogin_read) refers to analogin_api.o(i.adc_read_u32) for adc_read_u32
    analogin_api.o(i.analogin_read_u16) refers to analogin_api.o(i.adc_read_u32) for adc_read_u32
    adafruit_gfx.o(i._ZN12Adafruit_GFX10fillCircleEssst) refers to adafruit_gfx.o(i._ZN12Adafruit_GFX16fillCircleHelperEssshst) for Adafruit_GFX::fillCircleHelper(short, short, short, unsigned char, short, unsigned short)
    adafruit_gfx.o(i._ZN12Adafruit_GFX13drawRoundRectEssssst) refers to adafruit_gfx.o(i._ZN12Adafruit_GFX16drawCircleHelperEsssht) for Adafruit_GFX::drawCircleHelper(short, short, short, unsigned char, unsigned short)
    adafruit_gfx.o(i._ZN12Adafruit_GFX13fillRoundRectEssssst) refers to adafruit_gfx.o(i._ZN12Adafruit_GFX16fillCircleHelperEssshst) for Adafruit_GFX::fillCircleHelper(short, short, short, unsigned char, short, unsigned short)
    adafruit_gfx.o(i._ZN12Adafruit_GFX5writeEh) refers to adafruit_gfx.o(i._ZN12Adafruit_GFX8drawCharEsshtth) for Adafruit_GFX::drawChar(short, short, unsigned char, unsigned short, unsigned short, unsigned char)
    adafruit_gfx.o(i._ZN12Adafruit_GFX8drawCharEsshtth) refers to adafruit_gfx.o(.constdata) for font
    adafruit_gfx.o(i._ZN12Adafruit_GFXC2Ess) refers to adafruit_gfx.o(.constdata__ZTV12Adafruit_GFX) for vtable for Adafruit_GFX
    adafruit_gfx.o(.ARM.exidx) refers to adafruit_gfx.o(i._ZN12Adafruit_GFXC2Ess) for i._ZN12Adafruit_GFXC2Ess
    adafruit_gfx.o(.ARM.exidx) refers to adafruit_gfx.o(i._ZN12Adafruit_GFX8drawLineEsssst) for i._ZN12Adafruit_GFX8drawLineEsssst
    adafruit_gfx.o(.ARM.exidx) refers to adafruit_gfx.o(i._ZN12Adafruit_GFX13drawFastVLineEssst) for i._ZN12Adafruit_GFX13drawFastVLineEssst
    adafruit_gfx.o(.ARM.exidx) refers to adafruit_gfx.o(i._ZN12Adafruit_GFX13drawFastHLineEssst) for i._ZN12Adafruit_GFX13drawFastHLineEssst
    adafruit_gfx.o(.ARM.exidx) refers to adafruit_gfx.o(i._ZN12Adafruit_GFX8drawRectEsssst) for i._ZN12Adafruit_GFX8drawRectEsssst
    adafruit_gfx.o(.ARM.exidx) refers to adafruit_gfx.o(i._ZN12Adafruit_GFX8fillRectEsssst) for i._ZN12Adafruit_GFX8fillRectEsssst
    adafruit_gfx.o(.ARM.exidx) refers to adafruit_gfx.o(i._ZN12Adafruit_GFX10fillScreenEt) for i._ZN12Adafruit_GFX10fillScreenEt
    adafruit_gfx.o(.ARM.exidx) refers to adafruit_gfx.o(i._ZN12Adafruit_GFX13invertDisplayEb) for i._ZN12Adafruit_GFX13invertDisplayEb
    adafruit_gfx.o(.ARM.exidx) refers to adafruit_gfx.o(i._ZN12Adafruit_GFX10drawCircleEssst) for i._ZN12Adafruit_GFX10drawCircleEssst
    adafruit_gfx.o(.ARM.exidx) refers to adafruit_gfx.o(i._ZN12Adafruit_GFX16drawCircleHelperEsssht) for i._ZN12Adafruit_GFX16drawCircleHelperEsssht
    adafruit_gfx.o(.ARM.exidx) refers to adafruit_gfx.o(i._ZN12Adafruit_GFX16fillCircleHelperEssshst) for i._ZN12Adafruit_GFX16fillCircleHelperEssshst
    adafruit_gfx.o(.ARM.exidx) refers to adafruit_gfx.o(i._ZN12Adafruit_GFX10fillCircleEssst) for i._ZN12Adafruit_GFX10fillCircleEssst
    adafruit_gfx.o(.ARM.exidx) refers to adafruit_gfx.o(i._ZN12Adafruit_GFX12drawTriangleEsssssst) for i._ZN12Adafruit_GFX12drawTriangleEsssssst
    adafruit_gfx.o(.ARM.exidx) refers to adafruit_gfx.o(i._ZN12Adafruit_GFX12fillTriangleEsssssst) for i._ZN12Adafruit_GFX12fillTriangleEsssssst
    adafruit_gfx.o(.ARM.exidx) refers to adafruit_gfx.o(i._ZN12Adafruit_GFX13drawRoundRectEssssst) for i._ZN12Adafruit_GFX13drawRoundRectEssssst
    adafruit_gfx.o(.ARM.exidx) refers to adafruit_gfx.o(i._ZN12Adafruit_GFX13fillRoundRectEssssst) for i._ZN12Adafruit_GFX13fillRoundRectEssssst
    adafruit_gfx.o(.ARM.exidx) refers to adafruit_gfx.o(i._ZN12Adafruit_GFX10drawBitmapEssPKhsst) for i._ZN12Adafruit_GFX10drawBitmapEssPKhsst
    adafruit_gfx.o(.ARM.exidx) refers to adafruit_gfx.o(i._ZN12Adafruit_GFX8drawCharEsshtth) for i._ZN12Adafruit_GFX8drawCharEsshtth
    adafruit_gfx.o(.ARM.exidx) refers to adafruit_gfx.o(i._ZN12Adafruit_GFX9setCursorEss) for i._ZN12Adafruit_GFX9setCursorEss
    adafruit_gfx.o(.ARM.exidx) refers to adafruit_gfx.o(i._ZN12Adafruit_GFX12setTextColorEt) for i._ZN12Adafruit_GFX12setTextColorEt
    adafruit_gfx.o(.ARM.exidx) refers to adafruit_gfx.o(i._ZN12Adafruit_GFX12setTextColorEtt) for i._ZN12Adafruit_GFX12setTextColorEtt
    adafruit_gfx.o(.ARM.exidx) refers to adafruit_gfx.o(i._ZN12Adafruit_GFX11setTextSizeEh) for i._ZN12Adafruit_GFX11setTextSizeEh
    adafruit_gfx.o(.ARM.exidx) refers to adafruit_gfx.o(i._ZN12Adafruit_GFX11setTextWrapEb) for i._ZN12Adafruit_GFX11setTextWrapEb
    adafruit_gfx.o(.ARM.exidx) refers to adafruit_gfx.o(i._ZN12Adafruit_GFX11setRotationEh) for i._ZN12Adafruit_GFX11setRotationEh
    adafruit_gfx.o(.ARM.exidx) refers to adafruit_gfx.o(i._ZN12Adafruit_GFX5writeEh) for i._ZN12Adafruit_GFX5writeEh
    adafruit_gfx.o(.ARM.exidx) refers to adafruit_gfx.o(i._ZN12Adafruit_GFX6heightEv) for i._ZN12Adafruit_GFX6heightEv
    adafruit_gfx.o(.ARM.exidx) refers to adafruit_gfx.o(i._ZN12Adafruit_GFX5widthEv) for i._ZN12Adafruit_GFX5widthEv
    adafruit_gfx.o(.ARM.exidx) refers to adafruit_gfx.o(i._ZN12Adafruit_GFX11getRotationEv) for i._ZN12Adafruit_GFX11getRotationEv
    mma7455.o(i._ZN7MMA745514getModeControlEv) refers to i2c.o(i._ZN4mbed3I2C5writeEiPKcib) for mbed::I2C::write(int, const char*, int, bool)
    mma7455.o(i._ZN7MMA745514getModeControlEv) refers to i2c.o(i._ZN4mbed3I2C4readEiPcib) for mbed::I2C::read(int, char*, int, bool)
    mma7455.o(i._ZN7MMA745514setModeControlEh) refers to i2c.o(i._ZN4mbed3I2C5writeEiPKcib) for mbed::I2C::write(int, const char*, int, bool)
    mma7455.o(i._ZN7MMA74554readERiS0_S0_) refers to mma7455.o(i._ZN7MMA74559getStatusEv) for MMA7455::getStatus()
    mma7455.o(i._ZN7MMA74554readERiS0_S0_) refers to i2c.o(i._ZN4mbed3I2C5writeEiPKcib) for mbed::I2C::write(int, const char*, int, bool)
    mma7455.o(i._ZN7MMA74554readERiS0_S0_) refers to i2c.o(i._ZN4mbed3I2C4readEiPcib) for mbed::I2C::read(int, char*, int, bool)
    mma7455.o(i._ZN7MMA74557setModeENS_4ModeE) refers to mma7455.o(i._ZN7MMA745514getModeControlEv) for MMA7455::getModeControl()
    mma7455.o(i._ZN7MMA74557setModeENS_4ModeE) refers to mma7455.o(i._ZN7MMA745514setModeControlEh) for MMA7455::setModeControl(unsigned char)
    mma7455.o(i._ZN7MMA74558setRangeENS_5RangeE) refers to mma7455.o(i._ZN7MMA745514getModeControlEv) for MMA7455::getModeControl()
    mma7455.o(i._ZN7MMA74558setRangeENS_5RangeE) refers to mma7455.o(i._ZN7MMA745514setModeControlEh) for MMA7455::setModeControl(unsigned char)
    mma7455.o(i._ZN7MMA74559calibrateEv) refers to mma7455.o(i._ZN7MMA74554readERiS0_S0_) for MMA7455::read(int&, int&, int&)
    mma7455.o(i._ZN7MMA74559calibrateEv) refers to wait_api.o(i.wait_ms) for wait_ms
    mma7455.o(i._ZN7MMA74559getStatusEv) refers to i2c.o(i._ZN4mbed3I2C5writeEiPKcib) for mbed::I2C::write(int, const char*, int, bool)
    mma7455.o(i._ZN7MMA74559getStatusEv) refers to i2c.o(i._ZN4mbed3I2C4readEiPcib) for mbed::I2C::read(int, char*, int, bool)
    mma7455.o(i._ZN7MMA7455C1E7PinNameS0_) refers to i2c.o(i._ZN4mbed3I2CC1E7PinNameS1_) for mbed::I2C::I2C(PinName, PinName)
    mma7455.o(.ARM.exidx) refers to mma7455.o(i._ZN7MMA7455C1E7PinNameS0_) for i._ZN7MMA7455C1E7PinNameS0_
    mma7455.o(.ARM.exidx) refers to mma7455.o(i._ZN7MMA745514setModeControlEh) for i._ZN7MMA745514setModeControlEh
    mma7455.o(.ARM.exidx) refers to mma7455.o(i._ZN7MMA745514getModeControlEv) for i._ZN7MMA745514getModeControlEv
    mma7455.o(.ARM.exidx) refers to mma7455.o(i._ZN7MMA74557setModeENS_4ModeE) for i._ZN7MMA74557setModeENS_4ModeE
    mma7455.o(.ARM.exidx) refers to mma7455.o(i._ZN7MMA74558setRangeENS_5RangeE) for i._ZN7MMA74558setRangeENS_5RangeE
    mma7455.o(.ARM.exidx) refers to mma7455.o(i._ZN7MMA74559getStatusEv) for i._ZN7MMA74559getStatusEv
    mma7455.o(.ARM.exidx) refers to mma7455.o(i._ZN7MMA74554readERiS0_S0_) for i._ZN7MMA74554readERiS0_S0_
    mma7455.o(.ARM.exidx) refers to mma7455.o(i._ZN7MMA74559calibrateEv) for i._ZN7MMA74559calibrateEv
    mma7455.o(.ARM.exidx) refers to mma7455.o(i._ZN7MMA745521getCalibrationOffsetsERiS0_S0_) for i._ZN7MMA745521getCalibrationOffsetsERiS0_S0_
    mma7455.o(.ARM.exidx) refers to mma7455.o(i._ZN7MMA745521setCalibrationOffsetsEiii) for i._ZN7MMA745521setCalibrationOffsetsEiii
    lm75b.o(i._ZN5LM75B10osPolarityENS_10OSPolarityE) refers to lm75b.o(i._ZN5LM75B5read8Ec) for LM75B::read8(char)
    lm75b.o(i._ZN5LM75B10osPolarityENS_10OSPolarityE) refers to lm75b.o(i._ZN5LM75B6write8Ecc) for LM75B::write8(char, char)
    lm75b.o(i._ZN5LM75B10osPolarityEv) refers to lm75b.o(i._ZN5LM75B5read8Ec) for LM75B::read8(char)
    lm75b.o(i._ZN5LM75B12osFaultQueueENS_12OSFaultQueueE) refers to lm75b.o(i._ZN5LM75B5read8Ec) for LM75B::read8(char)
    lm75b.o(i._ZN5LM75B12osFaultQueueENS_12OSFaultQueueE) refers to lm75b.o(i._ZN5LM75B6write8Ecc) for LM75B::write8(char, char)
    lm75b.o(i._ZN5LM75B12osFaultQueueEv) refers to lm75b.o(i._ZN5LM75B5read8Ec) for LM75B::read8(char)
    lm75b.o(i._ZN5LM75B19readAlertTempHelperEc) refers to lm75b.o(i._ZN5LM75B6read16Ec) for LM75B::read16(char)
    lm75b.o(i._ZN5LM75B19readAlertTempHelperEc) refers to dflt_clz.o(x$fpl$dflt) for __aeabi_i2d
    lm75b.o(i._ZN5LM75B19readAlertTempHelperEc) refers to dmul.o(x$fpl$dmul) for __aeabi_dmul
    lm75b.o(i._ZN5LM75B19readAlertTempHelperEc) refers to d2f.o(x$fpl$d2f) for __aeabi_d2f
    lm75b.o(i._ZN5LM75B20writeAlertTempHelperEcf) refers to f2d.o(x$fpl$f2d) for __aeabi_f2d
    lm75b.o(i._ZN5LM75B20writeAlertTempHelperEcf) refers to dleqf.o(x$fpl$dleqf) for __aeabi_cdcmple
    lm75b.o(i._ZN5LM75B20writeAlertTempHelperEcf) refers to drleqf.o(x$fpl$drleqf) for __aeabi_cdrcmple
    lm75b.o(i._ZN5LM75B20writeAlertTempHelperEcf) refers to lm75b.o(i._ZN5LM75B7write16Ect) for LM75B::write16(char, unsigned short)
    lm75b.o(i._ZN5LM75B4openEv) refers to i2c.o(i._ZN4mbed3I2C5writeEiPKcib) for mbed::I2C::write(int, const char*, int, bool)
    lm75b.o(i._ZN5LM75B4tempEv) refers to lm75b.o(i._ZN5LM75B6read16Ec) for LM75B::read16(char)
    lm75b.o(i._ZN5LM75B4tempEv) refers to dflt_clz.o(x$fpl$dflt) for __aeabi_i2d
    lm75b.o(i._ZN5LM75B4tempEv) refers to dmul.o(x$fpl$dmul) for __aeabi_dmul
    lm75b.o(i._ZN5LM75B4tempEv) refers to d2f.o(x$fpl$d2f) for __aeabi_d2f
    lm75b.o(i._ZN5LM75B5read8Ec) refers to i2c.o(i._ZN4mbed3I2C5writeEiPKcib) for mbed::I2C::write(int, const char*, int, bool)
    lm75b.o(i._ZN5LM75B5read8Ec) refers to i2c.o(i._ZN4mbed3I2C4readEiPcib) for mbed::I2C::read(int, char*, int, bool)
    lm75b.o(i._ZN5LM75B6osModeENS_6OSModeE) refers to lm75b.o(i._ZN5LM75B5read8Ec) for LM75B::read8(char)
    lm75b.o(i._ZN5LM75B6osModeENS_6OSModeE) refers to lm75b.o(i._ZN5LM75B6write8Ecc) for LM75B::write8(char, char)
    lm75b.o(i._ZN5LM75B6osModeEv) refers to lm75b.o(i._ZN5LM75B5read8Ec) for LM75B::read8(char)
    lm75b.o(i._ZN5LM75B6read16Ec) refers to i2c.o(i._ZN4mbed3I2C5writeEiPKcib) for mbed::I2C::write(int, const char*, int, bool)
    lm75b.o(i._ZN5LM75B6read16Ec) refers to i2c.o(i._ZN4mbed3I2C4readEiPcib) for mbed::I2C::read(int, char*, int, bool)
    lm75b.o(i._ZN5LM75B6write8Ecc) refers to i2c.o(i._ZN4mbed3I2C5writeEiPKcib) for mbed::I2C::write(int, const char*, int, bool)
    lm75b.o(i._ZN5LM75B7write16Ect) refers to i2c.o(i._ZN4mbed3I2C5writeEiPKcib) for mbed::I2C::write(int, const char*, int, bool)
    lm75b.o(i._ZN5LM75B9alertHystEf) refers to lm75b.o(i._ZN5LM75B20writeAlertTempHelperEcf) for LM75B::writeAlertTempHelper(char, float)
    lm75b.o(i._ZN5LM75B9alertHystEv) refers to lm75b.o(i._ZN5LM75B19readAlertTempHelperEc) for LM75B::readAlertTempHelper(char)
    lm75b.o(i._ZN5LM75B9alertTempEf) refers to lm75b.o(i._ZN5LM75B20writeAlertTempHelperEcf) for LM75B::writeAlertTempHelper(char, float)
    lm75b.o(i._ZN5LM75B9alertTempEv) refers to lm75b.o(i._ZN5LM75B19readAlertTempHelperEc) for LM75B::readAlertTempHelper(char)
    lm75b.o(i._ZN5LM75B9powerModeENS_9PowerModeE) refers to lm75b.o(i._ZN5LM75B5read8Ec) for LM75B::read8(char)
    lm75b.o(i._ZN5LM75B9powerModeENS_9PowerModeE) refers to lm75b.o(i._ZN5LM75B6write8Ecc) for LM75B::write8(char, char)
    lm75b.o(i._ZN5LM75B9powerModeEv) refers to lm75b.o(i._ZN5LM75B5read8Ec) for LM75B::read8(char)
    lm75b.o(i._ZN5LM75BC1E7PinNameS0_NS_7AddressEi) refers to i2c.o(i._ZN4mbed3I2CC1E7PinNameS1_) for mbed::I2C::I2C(PinName, PinName)
    lm75b.o(i._ZN5LM75BC1E7PinNameS0_NS_7AddressEi) refers to i2c.o(i._ZN4mbed3I2C9frequencyEi) for mbed::I2C::frequency(int)
    lm75b.o(i._ZN5LM75BcvfEv) refers to lm75b.o(i._ZN5LM75B4tempEv) for LM75B::temp()
    lm75b.o(.ARM.exidx) refers to lm75b.o(i._ZN5LM75BC1E7PinNameS0_NS_7AddressEi) for i._ZN5LM75BC1E7PinNameS0_NS_7AddressEi
    lm75b.o(.ARM.exidx) refers to lm75b.o(i._ZN5LM75B4openEv) for i._ZN5LM75B4openEv
    lm75b.o(.ARM.exidx) refers to lm75b.o(i._ZN5LM75B5read8Ec) for i._ZN5LM75B5read8Ec
    lm75b.o(.ARM.exidx) refers to lm75b.o(i._ZN5LM75B9powerModeEv) for i._ZN5LM75B9powerModeEv
    lm75b.o(.ARM.exidx) refers to lm75b.o(i._ZN5LM75B6write8Ecc) for i._ZN5LM75B6write8Ecc
    lm75b.o(.ARM.exidx) refers to lm75b.o(i._ZN5LM75B9powerModeENS_9PowerModeE) for i._ZN5LM75B9powerModeENS_9PowerModeE
    lm75b.o(.ARM.exidx) refers to lm75b.o(i._ZN5LM75B6osModeEv) for i._ZN5LM75B6osModeEv
    lm75b.o(.ARM.exidx) refers to lm75b.o(i._ZN5LM75B6osModeENS_6OSModeE) for i._ZN5LM75B6osModeENS_6OSModeE
    lm75b.o(.ARM.exidx) refers to lm75b.o(i._ZN5LM75B10osPolarityEv) for i._ZN5LM75B10osPolarityEv
    lm75b.o(.ARM.exidx) refers to lm75b.o(i._ZN5LM75B10osPolarityENS_10OSPolarityE) for i._ZN5LM75B10osPolarityENS_10OSPolarityE
    lm75b.o(.ARM.exidx) refers to lm75b.o(i._ZN5LM75B12osFaultQueueEv) for i._ZN5LM75B12osFaultQueueEv
    lm75b.o(.ARM.exidx) refers to lm75b.o(i._ZN5LM75B12osFaultQueueENS_12OSFaultQueueE) for i._ZN5LM75B12osFaultQueueENS_12OSFaultQueueE
    lm75b.o(.ARM.exidx) refers to lm75b.o(i._ZN5LM75B6read16Ec) for i._ZN5LM75B6read16Ec
    lm75b.o(.ARM.exidx) refers to lm75b.o(i._ZN5LM75B19readAlertTempHelperEc) for i._ZN5LM75B19readAlertTempHelperEc
    lm75b.o(.ARM.exidx) refers to lm75b.o(i._ZN5LM75B9alertTempEv) for i._ZN5LM75B9alertTempEv
    lm75b.o(.ARM.exidx) refers to lm75b.o(i._ZN5LM75B7write16Ect) for i._ZN5LM75B7write16Ect
    lm75b.o(.ARM.exidx) refers to lm75b.o(i._ZN5LM75B20writeAlertTempHelperEcf) for i._ZN5LM75B20writeAlertTempHelperEcf
    lm75b.o(.ARM.exidx) refers to lm75b.o(i._ZN5LM75B9alertTempEf) for i._ZN5LM75B9alertTempEf
    lm75b.o(.ARM.exidx) refers to lm75b.o(i._ZN5LM75B9alertHystEv) for i._ZN5LM75B9alertHystEv
    lm75b.o(.ARM.exidx) refers to lm75b.o(i._ZN5LM75B9alertHystEf) for i._ZN5LM75B9alertHystEf
    lm75b.o(.ARM.exidx) refers to lm75b.o(i._ZN5LM75B4tempEv) for i._ZN5LM75B4tempEv
    lm75b.o(.ARM.exidx) refers to lm75b.o(i._ZN5LM75BcvfEv) for i._ZN5LM75BcvfEv
    display.o(i._ZN7Display10theDisplayEv) refers to cxa_guard_acquire.o(i.__cxa_guard_acquire) for __cxa_guard_acquire
    display.o(i._ZN7Display10theDisplayEv) refers to new.o(i._Znwj) for operator new(unsigned)
    display.o(i._ZN7Display10theDisplayEv) refers to display.o(i._ZN7DisplayC1Ev) for Display::Display()
    display.o(i._ZN7Display10theDisplayEv) refers to display.o(.data) for _ZGVtheDisplay
    display.o(i._ZN7Display5_putcEi) refers to adafruit_gfx.o(i._ZN12Adafruit_GFX5writeEh) for Adafruit_GFX::write(unsigned char)
    display.o(i._ZN7DisplayC1Ev) refers to stream.o(i._ZN4mbed6StreamC2EPKc) for mbed::Stream::Stream__sub_object(const char*)
    display.o(i._ZN7DisplayC1Ev) refers to gfxfb.o(i._ZN5GFXFbC1EttPt) for GFXFb::GFXFb(unsigned short, unsigned short, unsigned short*)
    display.o(i._ZN7DisplayC1Ev) refers to ealcdboardgpio.o(i._ZN14EaLcdBoardGPIOC1E7PinNameS0_) for EaLcdBoardGPIO::EaLcdBoardGPIO(PinName, PinName)
    display.o(i._ZN7DisplayC1Ev) refers to new.o(i._Znwj) for operator new(unsigned)
    display.o(i._ZN7DisplayC1Ev) refers to display.o(i._ZN13LcdController6ConfigC1EiiiiiiiibbbbiNS_12BitsPerPixelEiNS_8LcdPanelEb) for LcdController::Config::Config(int, int, int, int, int, int, int, int, bool, bool, bool, bool, int, LcdController::BitsPerPixel, int, LcdController::LcdPanel, bool)
    display.o(i._ZN7DisplayC1Ev) refers to ealcdboard.o(i._ZN10EaLcdBoard4openEPN13LcdController6ConfigEPc) for EaLcdBoard::open(LcdController::Config*, char*)
    display.o(i._ZN7DisplayC1Ev) refers to sdram.o(i._Z10sdram_initv) for sdram_init()
    display.o(i._ZN7DisplayC1Ev) refers to h1_alloc.o(.text) for malloc
    display.o(i._ZN7DisplayC1Ev) refers to rt_memclr.o(.text) for __aeabi_memclr
    display.o(i._ZN7DisplayC1Ev) refers to ealcdboard.o(i._ZN10EaLcdBoard14setFrameBufferEj) for EaLcdBoard::setFrameBuffer(unsigned)
    display.o(i._ZN7DisplayC1Ev) refers to display.o(.constdata__ZTV7Display) for vtable for Display
    display.o(i._ZN7DisplayD0Ev) refers to display.o(i._ZN7DisplayD1Ev) for Display::~Display()
    display.o(i._ZN7DisplayD0Ev) refers to delete.o(i._ZdlPv) for operator delete (void*)
    display.o(i._ZN7DisplayD1Ev) refers to h1_free.o(.text) for free
    display.o(i._ZN7DisplayD1Ev) refers to stream.o(i._ZN4mbed6StreamD2Ev) for mbed::Stream::~Stream__sub_object()
    display.o(i._ZN7DisplayD1Ev) refers to display.o(.constdata__ZTV7Display) for vtable for Display
    display.o(i._ZThn4_N7DisplayD0Ev) refers to display.o(i._ZN7DisplayD0Ev) for Display::~Display__deallocating()
    display.o(i._ZThn4_N7DisplayD1Ev) refers to display.o(i._ZN7DisplayD1Ev) for Display::~Display()
    display.o(.ARM.exidx) refers to display.o(i._ZN7DisplayD1Ev) for i._ZN7DisplayD1Ev
    display.o(.ARM.exidx) refers to display.o(i._ZN7DisplayD0Ev) for i._ZN7DisplayD0Ev
    display.o(.ARM.exidx) refers to display.o(i._ZThn4_N7DisplayD0Ev) for i._ZThn4_N7DisplayD0Ev
    display.o(.ARM.exidx) refers to display.o(i._ZThn4_N7DisplayD1Ev) for i._ZThn4_N7DisplayD1Ev
    display.o(.ARM.exidx) refers to display.o(i._ZN7Display6initOkEv) for i._ZN7Display6initOkEv
    display.o(.ARM.exidx) refers to display.o(i._ZN7DisplayC1Ev) for i._ZN7DisplayC1Ev
    display.o(.ARM.exidx) refers to display.o(i._ZN7Display10theDisplayEv) for i._ZN7Display10theDisplayEv
    display.o(.ARM.exidx) refers to display.o(i._ZN7Display5_putcEi) for i._ZN7Display5_putcEi
    display.o(.ARM.exidx) refers to display.o(i._ZN7Display5_getcEv) for i._ZN7Display5_getcEv
    error.o(i.error) refers to vfprintf.o(.text) for vfprintf
    error.o(i.error) refers to retarget.o(i.exit) for exit
    error.o(i.error) refers to stdio_streams.o(.bss) for __stderr
    pinmap_common.o(i.pinmap_function) refers to pinmap_common.o(i.pinmap_find_function) for pinmap_find_function
    pinmap_common.o(i.pinmap_function) refers to error.o(i.error) for error
    pinmap_common.o(i.pinmap_merge) refers to error.o(i.error) for error
    pinmap_common.o(i.pinmap_peripheral) refers to pinmap_common.o(i.pinmap_find_peripheral) for pinmap_find_peripheral
    pinmap_common.o(i.pinmap_peripheral) refers to error.o(i.error) for error
    pinmap_common.o(i.pinmap_pinout) refers to pinmap.o(i.pin_function) for pin_function
    pinmap_common.o(i.pinmap_pinout) refers to pinmap.o(i.pin_mode) for pin_mode
    pinmap_common.o(i.pinmap_pinout) refers to error.o(i.error) for error
    us_ticker_api.o(i.get_us_ticker_data) refers to us_ticker_api.o(.constdata) for us_data
    us_ticker_api.o(i.us_ticker_irq_handler) refers to ticker_api.o(i.ticker_irq_handler) for ticker_irq_handler
    us_ticker_api.o(i.us_ticker_irq_handler) refers to us_ticker_api.o(.constdata) for us_data
    us_ticker_api.o(.constdata) refers to us_ticker.o(i.us_ticker_init) for us_ticker_init
    us_ticker_api.o(.constdata) refers to us_ticker.o(i.us_ticker_read) for us_ticker_read
    us_ticker_api.o(.constdata) refers to us_ticker.o(i.us_ticker_disable_interrupt) for us_ticker_disable_interrupt
    us_ticker_api.o(.constdata) refers to us_ticker.o(i.us_ticker_clear_interrupt) for us_ticker_clear_interrupt
    us_ticker_api.o(.constdata) refers to us_ticker.o(i.us_ticker_set_interrupt) for us_ticker_set_interrupt
    us_ticker_api.o(.constdata) refers to us_ticker_api.o(.data) for events
    wait_api.o(i.wait) refers to wait_api.o(i.wait_us) for wait_us
    wait_api.o(i.wait_ms) refers to wait_api.o(i.wait_us) for wait_us
    wait_api.o(i.wait_us) refers to us_ticker.o(i.us_ticker_read) for us_ticker_read
    i2c.o(i._ZN4mbed3I2C4readEi) refers to i2c_api.o(i.i2c_byte_read) for i2c_byte_read
    i2c.o(i._ZN4mbed3I2C4readEiPcib) refers to i2c.o(i._ZN4mbed3I2C6aquireEv) for mbed::I2C::aquire()
    i2c.o(i._ZN4mbed3I2C4readEiPcib) refers to i2c_api.o(i.i2c_read) for i2c_read
    i2c.o(i._ZN4mbed3I2C4stopEv) refers to i2c_api.o(i.i2c_stop) for i2c_stop
    i2c.o(i._ZN4mbed3I2C5startEv) refers to i2c_api.o(i.i2c_start) for i2c_start
    i2c.o(i._ZN4mbed3I2C5writeEi) refers to i2c_api.o(i.i2c_byte_write) for i2c_byte_write
    i2c.o(i._ZN4mbed3I2C5writeEiPKcib) refers to i2c.o(i._ZN4mbed3I2C6aquireEv) for mbed::I2C::aquire()
    i2c.o(i._ZN4mbed3I2C5writeEiPKcib) refers to i2c_api.o(i.i2c_write) for i2c_write
    i2c.o(i._ZN4mbed3I2C6aquireEv) refers to i2c_api.o(i.i2c_frequency) for i2c_frequency
    i2c.o(i._ZN4mbed3I2C6aquireEv) refers to i2c.o(.data) for mbed::I2C::_owner
    i2c.o(i._ZN4mbed3I2C9frequencyEi) refers to i2c_api.o(i.i2c_frequency) for i2c_frequency
    i2c.o(i._ZN4mbed3I2C9frequencyEi) refers to i2c.o(.data) for mbed::I2C::_owner
    i2c.o(i._ZN4mbed3I2CC1E7PinNameS1_) refers to i2c_api.o(i.i2c_init) for i2c_init
    i2c.o(i._ZN4mbed3I2CC1E7PinNameS1_) refers to i2c.o(.data) for mbed::I2C::_owner
    i2c.o(.ARM.exidx) refers to i2c.o(i._ZN4mbed3I2CC1E7PinNameS1_) for i._ZN4mbed3I2CC1E7PinNameS1_
    i2c.o(.ARM.exidx) refers to i2c.o(i._ZN4mbed3I2C9frequencyEi) for i._ZN4mbed3I2C9frequencyEi
    i2c.o(.ARM.exidx) refers to i2c.o(i._ZN4mbed3I2C6aquireEv) for i._ZN4mbed3I2C6aquireEv
    i2c.o(.ARM.exidx) refers to i2c.o(i._ZN4mbed3I2C4readEiPcib) for i._ZN4mbed3I2C4readEiPcib
    i2c.o(.ARM.exidx) refers to i2c.o(i._ZN4mbed3I2C4readEi) for i._ZN4mbed3I2C4readEi
    i2c.o(.ARM.exidx) refers to i2c.o(i._ZN4mbed3I2C5writeEiPKcib) for i._ZN4mbed3I2C5writeEiPKcib
    i2c.o(.ARM.exidx) refers to i2c.o(i._ZN4mbed3I2C5writeEi) for i._ZN4mbed3I2C5writeEi
    i2c.o(.ARM.exidx) refers to i2c.o(i._ZN4mbed3I2C5startEv) for i._ZN4mbed3I2C5startEv
    i2c.o(.ARM.exidx) refers to i2c.o(i._ZN4mbed3I2C4stopEv) for i._ZN4mbed3I2C4stopEv
    stream.o(i._ZN4mbed6Stream4getcEv) refers to fflush.o(.text) for fflush
    stream.o(i._ZN4mbed6Stream4getcEv) refers to retarget.o(i._ZN4mbed9mbed_getcEPSt6__FILE) for mbed::mbed_getc(std::__FILE*)
    stream.o(i._ZN4mbed6Stream4getsEPci) refers to fflush.o(.text) for fflush
    stream.o(i._ZN4mbed6Stream4getsEPci) refers to retarget.o(i._ZN4mbed9mbed_getsEPciPSt6__FILE) for mbed::mbed_gets(char*, int, std::__FILE*)
    stream.o(i._ZN4mbed6Stream4putcEi) refers to fflush.o(.text) for fflush
    stream.o(i._ZN4mbed6Stream4putcEi) refers to fputc.o(i.fputc) for fputc
    stream.o(i._ZN4mbed6Stream4putsEPKc) refers to fflush.o(.text) for fflush
    stream.o(i._ZN4mbed6Stream4putsEPKc) refers to fputs.o(.text) for fputs
    stream.o(i._ZN4mbed6Stream5scanfEPKcz) refers to fflush.o(.text) for fflush
    stream.o(i._ZN4mbed6Stream5scanfEPKcz) refers to vfscanf.o(.text) for vfscanf
    stream.o(i._ZN4mbed6Stream6printfEPKcz) refers to fflush.o(.text) for fflush
    stream.o(i._ZN4mbed6Stream6printfEPKcz) refers to c89vfprintf.o(.text) for __c89vfprintf
    stream.o(i._ZN4mbed6StreamC2EPKc) refers to _printf_percent.o(.ARM.Collect$$_printf_percent$$00000000) for _printf_percent
    stream.o(i._ZN4mbed6StreamC2EPKc) refers to _printf_p.o(.ARM.Collect$$_printf_percent$$00000002) for _printf_p
    stream.o(i._ZN4mbed6StreamC2EPKc) refers to _printf_hex_int_ll_ptr.o(.text) for _printf_longlong_hex
    stream.o(i._ZN4mbed6StreamC2EPKc) refers to filelike.o(i._ZN4mbed8FileLikeC2EPKc) for mbed::FileLike::FileLike__sub_object(const char*)
    stream.o(i._ZN4mbed6StreamC2EPKc) refers to __2sprintf.o(.text) for __2sprintf
    stream.o(i._ZN4mbed6StreamC2EPKc) refers to fopen.o(.text) for fopen
    stream.o(i._ZN4mbed6StreamC2EPKc) refers to retarget.o(i._ZN4mbed26mbed_set_unbuffered_streamEPSt6__FILE) for mbed::mbed_set_unbuffered_stream(std::__FILE*)
    stream.o(i._ZN4mbed6StreamC2EPKc) refers to stream.o(.constdata__ZTVN4mbed6StreamE) for vtable for mbed::Stream
    stream.o(i._ZN4mbed6StreamD0Ev) refers to stream.o(i._ZN4mbed6StreamD2Ev) for mbed::Stream::~Stream__sub_object()
    stream.o(i._ZN4mbed6StreamD0Ev) refers to delete.o(i._ZdlPv) for operator delete (void*)
    stream.o(i._ZN4mbed6StreamD2Ev) refers to fclose.o(.text) for fclose
    stream.o(i._ZN4mbed6StreamD2Ev) refers to filelike.o(i._ZN4mbed8FileLikeD2Ev) for mbed::FileLike::~FileLike__sub_object()
    stream.o(i._ZN4mbed6StreamD2Ev) refers to stream.o(.constdata__ZTVN4mbed6StreamE) for vtable for mbed::Stream
    stream.o(i._ZThn4_N4mbed6StreamD0Ev) refers to stream.o(i._ZN4mbed6StreamD0Ev) for mbed::Stream::~Stream__deallocating()
    stream.o(i._ZThn4_N4mbed6StreamD1Ev) refers to stream.o(i._ZN4mbed6StreamD2Ev) for mbed::Stream::~Stream__sub_object()
    stream.o(.ARM.exidx) refers to stream.o(i._ZN4mbed6StreamC2EPKc) for i._ZN4mbed6StreamC2EPKc
    stream.o(.ARM.exidx) refers to stream.o(i._ZN4mbed6StreamD2Ev) for i._ZN4mbed6StreamD2Ev
    stream.o(.ARM.exidx) refers to stream.o(i._ZN4mbed6StreamD0Ev) for i._ZN4mbed6StreamD0Ev
    stream.o(.ARM.exidx) refers to stream.o(i._ZThn4_N4mbed6StreamD0Ev) for i._ZThn4_N4mbed6StreamD0Ev
    stream.o(.ARM.exidx) refers to stream.o(i._ZThn4_N4mbed6StreamD1Ev) for i._ZThn4_N4mbed6StreamD1Ev
    stream.o(.ARM.exidx) refers to stream.o(i._ZN4mbed6Stream4putcEi) for i._ZN4mbed6Stream4putcEi
    stream.o(.ARM.exidx) refers to stream.o(i._ZN4mbed6Stream4putsEPKc) for i._ZN4mbed6Stream4putsEPKc
    stream.o(.ARM.exidx) refers to stream.o(i._ZN4mbed6Stream4getcEv) for i._ZN4mbed6Stream4getcEv
    stream.o(.ARM.exidx) refers to stream.o(i._ZN4mbed6Stream4getsEPci) for i._ZN4mbed6Stream4getsEPci
    stream.o(.ARM.exidx) refers to stream.o(i._ZN4mbed6Stream6printfEPKcz) for i._ZN4mbed6Stream6printfEPKcz
    stream.o(.ARM.exidx) refers to stream.o(i._ZN4mbed6Stream5scanfEPKcz) for i._ZN4mbed6Stream5scanfEPKcz
    stream.o(.ARM.exidx) refers to stream.o(i._ZN4mbed6Stream5closeEv) for i._ZN4mbed6Stream5closeEv
    stream.o(.ARM.exidx) refers to stream.o(i._ZN4mbed6Stream5writeEPKvj) for i._ZN4mbed6Stream5writeEPKvj
    stream.o(.ARM.exidx) refers to stream.o(i._ZN4mbed6Stream4readEPvj) for i._ZN4mbed6Stream4readEPvj
    stream.o(.ARM.exidx) refers to stream.o(i._ZN4mbed6Stream5lseekEli) for i._ZN4mbed6Stream5lseekEli
    stream.o(.ARM.exidx) refers to stream.o(i._ZN4mbed6Stream6isattyEv) for i._ZN4mbed6Stream6isattyEv
    stream.o(.ARM.exidx) refers to stream.o(i._ZN4mbed6Stream5fsyncEv) for i._ZN4mbed6Stream5fsyncEv
    stream.o(.ARM.exidx) refers to stream.o(i._ZN4mbed6Stream4flenEv) for i._ZN4mbed6Stream4flenEv
    gpio_api.o(i.gpio_dir) refers to assert.o(i.mbed_assert_internal) for mbed_assert_internal
    gpio_api.o(i.gpio_init) refers to gpio_api.o(i.gpio_set) for gpio_set
    gpio_api.o(i.gpio_mode) refers to pinmap.o(i.pin_mode) for pin_mode
    gpio_api.o(i.gpio_set) refers to assert.o(i.mbed_assert_internal) for mbed_assert_internal
    gpio_api.o(i.gpio_set) refers to pinmap.o(i.pin_function) for pin_function
    ealcdboardgpio.o(i._ZN14EaLcdBoardGPIO11set5VSignalEb) refers to ealcdboardgpio.o(i._ZN4mbed10DigitalOutaSEi) for mbed::DigitalOut::operator =(int)
    ealcdboardgpio.o(i._ZN14EaLcdBoardGPIO12set3V3SignalEb) refers to ealcdboardgpio.o(i._ZN4mbed10DigitalOutaSEi) for mbed::DigitalOut::operator =(int)
    ealcdboardgpio.o(i._ZN14EaLcdBoardGPIO20setBacklightContrastEj) refers to pwmout_api.o(i.pwmout_write) for pwmout_write
    ealcdboardgpio.o(i._ZN14EaLcdBoardGPIO22setDisplayEnableSignalEb) refers to ealcdboardgpio.o(i._ZN4mbed10DigitalOutaSEi) for mbed::DigitalOut::operator =(int)
    ealcdboardgpio.o(i._ZN14EaLcdBoardGPIOC1E7PinNameS0_) refers to ealcdboard.o(i._ZN10EaLcdBoardC1E7PinNameS0_) for EaLcdBoard::EaLcdBoard(PinName, PinName)
    ealcdboardgpio.o(i._ZN14EaLcdBoardGPIOC1E7PinNameS0_) refers to ealcdboardgpio.o(i._ZN4mbed10DigitalOutC1E7PinName) for mbed::DigitalOut::DigitalOut(PinName)
    ealcdboardgpio.o(i._ZN14EaLcdBoardGPIOC1E7PinNameS0_) refers to pwmout_api.o(i.pwmout_init) for pwmout_init
    ealcdboardgpio.o(i._ZN14EaLcdBoardGPIOC1E7PinNameS0_) refers to pwmout_api.o(i.pwmout_period_ms) for pwmout_period_ms
    ealcdboardgpio.o(i._ZN14EaLcdBoardGPIOC1E7PinNameS0_) refers to ealcdboardgpio.o(i._ZN14EaLcdBoardGPIO15setWriteProtectEb) for EaLcdBoardGPIO::setWriteProtect(bool)
    ealcdboardgpio.o(i._ZN14EaLcdBoardGPIOC1E7PinNameS0_) refers to ealcdboardgpio.o(i._ZN14EaLcdBoardGPIO12set3V3SignalEb) for EaLcdBoardGPIO::set3V3Signal(bool)
    ealcdboardgpio.o(i._ZN14EaLcdBoardGPIOC1E7PinNameS0_) refers to ealcdboardgpio.o(i._ZN14EaLcdBoardGPIO11set5VSignalEb) for EaLcdBoardGPIO::set5VSignal(bool)
    ealcdboardgpio.o(i._ZN14EaLcdBoardGPIOC1E7PinNameS0_) refers to ealcdboardgpio.o(i._ZN14EaLcdBoardGPIO22setDisplayEnableSignalEb) for EaLcdBoardGPIO::setDisplayEnableSignal(bool)
    ealcdboardgpio.o(i._ZN14EaLcdBoardGPIOC1E7PinNameS0_) refers to ealcdboardgpio.o(i._ZN14EaLcdBoardGPIO20setBacklightContrastEj) for EaLcdBoardGPIO::setBacklightContrast(unsigned)
    ealcdboardgpio.o(i._ZN14EaLcdBoardGPIOC1E7PinNameS0_) refers to ealcdboardgpio.o(.constdata__ZTV14EaLcdBoardGPIO) for vtable for EaLcdBoardGPIO
    ealcdboardgpio.o(.ARM.exidx) refers to ealcdboardgpio.o(i._ZN14EaLcdBoardGPIO20setBacklightContrastEj) for i._ZN14EaLcdBoardGPIO20setBacklightContrastEj
    ealcdboardgpio.o(.ARM.exidx) refers to ealcdboardgpio.o(i._ZN14EaLcdBoardGPIO22setDisplayEnableSignalEb) for i._ZN14EaLcdBoardGPIO22setDisplayEnableSignalEb
    ealcdboardgpio.o(.ARM.exidx) refers to ealcdboardgpio.o(i._ZN14EaLcdBoardGPIO11set5VSignalEb) for i._ZN14EaLcdBoardGPIO11set5VSignalEb
    ealcdboardgpio.o(.ARM.exidx) refers to ealcdboardgpio.o(i._ZN14EaLcdBoardGPIO12set3V3SignalEb) for i._ZN14EaLcdBoardGPIO12set3V3SignalEb
    ealcdboardgpio.o(.ARM.exidx) refers to ealcdboardgpio.o(i._ZN14EaLcdBoardGPIO15setWriteProtectEb) for i._ZN14EaLcdBoardGPIO15setWriteProtectEb
    ealcdboardgpio.o(.ARM.exidx) refers to ealcdboardgpio.o(i._ZN14EaLcdBoardGPIOC1E7PinNameS0_) for i._ZN14EaLcdBoardGPIOC1E7PinNameS0_
    ealcdboard.o(i._ZN10EaLcdBoard10eepromReadEPhtt) refers to wait_api.o(i.wait_ms) for wait_ms
    ealcdboard.o(i._ZN10EaLcdBoard10eepromReadEPhtt) refers to i2c.o(i._ZN4mbed3I2C5writeEiPKcib) for mbed::I2C::write(int, const char*, int, bool)
    ealcdboard.o(i._ZN10EaLcdBoard10eepromReadEPhtt) refers to i2c.o(i._ZN4mbed3I2C4readEiPcib) for mbed::I2C::read(int, char*, int, bool)
    ealcdboard.o(i._ZN10EaLcdBoard10execPinSetEPcj) refers to ealcdboard.o(i._Z9port_pin28PortNamei) for port_pin2(PortName, int)
    ealcdboard.o(i._ZN10EaLcdBoard10execPinSetEPcj) refers to gpio_api.o(i.gpio_init) for gpio_init
    ealcdboard.o(i._ZN10EaLcdBoard10execPinSetEPcj) refers to gpio_api.o(i.gpio_dir) for gpio_dir
    ealcdboard.o(i._ZN10EaLcdBoard10execPinSetEPcj) refers to gpio_api.o(i.gpio_mode) for gpio_mode
    ealcdboard.o(i._ZN10EaLcdBoard10execPinSetEPcj) refers to assert.o(i.mbed_assert_internal) for mbed_assert_internal
    ealcdboard.o(i._ZN10EaLcdBoard10execPinSetEPcj) refers to ealcdboard.o(.conststring) for .conststring
    ealcdboard.o(i._ZN10EaLcdBoard10getInitSeqEPci) refers to ealcdboard.o(i._ZN10EaLcdBoard8getStoreEPNS_7store_tE) for EaLcdBoard::getStore(EaLcdBoard::store_t*)
    ealcdboard.o(i._ZN10EaLcdBoard10getInitSeqEPci) refers to ealcdboard.o(i._ZN10EaLcdBoard10eepromReadEPhtt) for EaLcdBoard::eepromRead(unsigned char*, unsigned short, unsigned short)
    ealcdboard.o(i._ZN10EaLcdBoard11eepromWriteEPhtt) refers to wait_api.o(i.wait_ms) for wait_ms
    ealcdboard.o(i._ZN10EaLcdBoard11eepromWriteEPhtt) refers to rt_memcpy_v6.o(.text) for __aeabi_memcpy
    ealcdboard.o(i._ZN10EaLcdBoard11eepromWriteEPhtt) refers to i2c.o(i._ZN4mbed3I2C5writeEiPKcib) for mbed::I2C::write(int, const char*, int, bool)
    ealcdboard.o(i._ZN10EaLcdBoard11execSeqCtrlEPcj) refers to ealcdboard.o(i._Z11str_to_uintPcj) for str_to_uint(char*, unsigned)
    ealcdboard.o(i._ZN10EaLcdBoard11set5VSignalEb) refers to ealcdboard.o(i._ZN10EaLcdBoard15pca9532_setLedsEtt) for EaLcdBoard::pca9532_setLeds(unsigned short, unsigned short)
    ealcdboard.o(i._ZN10EaLcdBoard12checkVersionEPcj) refers to ealcdboard.o(i._Z11str_to_uintPcj) for str_to_uint(char*, unsigned)
    ealcdboard.o(i._ZN10EaLcdBoard12getLcdConfigEPN13LcdController6ConfigE) refers to ealcdboard.o(i._ZN10EaLcdBoard8getStoreEPNS_7store_tE) for EaLcdBoard::getStore(EaLcdBoard::store_t*)
    ealcdboard.o(i._ZN10EaLcdBoard12getLcdConfigEPN13LcdController6ConfigE) refers to ealcdboard.o(i._ZN10EaLcdBoard10eepromReadEPhtt) for EaLcdBoard::eepromRead(unsigned char*, unsigned short, unsigned short)
    ealcdboard.o(i._ZN10EaLcdBoard12set3V3SignalEb) refers to ealcdboard.o(i._ZN10EaLcdBoard15pca9532_setLedsEtt) for EaLcdBoard::pca9532_setLeds(unsigned short, unsigned short)
    ealcdboard.o(i._ZN10EaLcdBoard13getDisplayMfgEPci) refers to ealcdboard.o(i._ZN10EaLcdBoard8getStoreEPNS_7store_tE) for EaLcdBoard::getStore(EaLcdBoard::store_t*)
    ealcdboard.o(i._ZN10EaLcdBoard13getDisplayMfgEPci) refers to strncpy.o(.text) for strncpy
    ealcdboard.o(i._ZN10EaLcdBoard14getDisplayNameEPci) refers to ealcdboard.o(i._ZN10EaLcdBoard8getStoreEPNS_7store_tE) for EaLcdBoard::getStore(EaLcdBoard::store_t*)
    ealcdboard.o(i._ZN10EaLcdBoard14getDisplayNameEPci) refers to strncpy.o(.text) for strncpy
    ealcdboard.o(i._ZN10EaLcdBoard14setFrameBufferEj) refers to lcdcontroller.o(i._ZN13LcdController8setPowerEb) for LcdController::setPower(bool)
    ealcdboard.o(i._ZN10EaLcdBoard14setFrameBufferEj) refers to lcdcontroller.o(i._ZN13LcdController14setFrameBufferEj) for LcdController::setFrameBuffer(unsigned)
    ealcdboard.o(i._ZN10EaLcdBoard15getPowerDownSeqEPci) refers to ealcdboard.o(i._ZN10EaLcdBoard8getStoreEPNS_7store_tE) for EaLcdBoard::getStore(EaLcdBoard::store_t*)
    ealcdboard.o(i._ZN10EaLcdBoard15getPowerDownSeqEPci) refers to ealcdboard.o(i._ZN10EaLcdBoard10eepromReadEPhtt) for EaLcdBoard::eepromRead(unsigned char*, unsigned short, unsigned short)
    ealcdboard.o(i._ZN10EaLcdBoard15parseInitStringEPcPN13LcdController6ConfigE) refers to ealcdboard.o(i._ZN10EaLcdBoard12checkVersionEPcj) for EaLcdBoard::checkVersion(char*, unsigned)
    ealcdboard.o(i._ZN10EaLcdBoard15parseInitStringEPcPN13LcdController6ConfigE) refers to ealcdboard.o(i._ZN10EaLcdBoard11execSeqCtrlEPcj) for EaLcdBoard::execSeqCtrl(char*, unsigned)
    ealcdboard.o(i._ZN10EaLcdBoard15parseInitStringEPcPN13LcdController6ConfigE) refers to ealcdboard.o(i._ZN10EaLcdBoard9execDelayEPcj) for EaLcdBoard::execDelay(char*, unsigned)
    ealcdboard.o(i._ZN10EaLcdBoard15parseInitStringEPcPN13LcdController6ConfigE) refers to lcdcontroller.o(i._ZN13LcdController4openEPNS_6ConfigE) for LcdController::open(LcdController::Config*)
    ealcdboard.o(i._ZN10EaLcdBoard15parseInitStringEPcPN13LcdController6ConfigE) refers to ealcdboard.o(i._ZN10EaLcdBoard10execPinSetEPcj) for EaLcdBoard::execPinSet(char*, unsigned)
    ealcdboard.o(i._ZN10EaLcdBoard15pca9532_setLedsEtt) refers to ealcdboard.o(i._ZN10EaLcdBoard7setLedsEv) for EaLcdBoard::setLeds()
    ealcdboard.o(i._ZN10EaLcdBoard15setWriteProtectEb) refers to ealcdboard.o(i._ZN10EaLcdBoard15pca9532_setLedsEtt) for EaLcdBoard::pca9532_setLeds(unsigned short, unsigned short)
    ealcdboard.o(i._ZN10EaLcdBoard15storeParametersEPKcS1_PN13LcdController6ConfigES1_S1_PNS_13TouchParams_tEb) refers to strncpy.o(.text) for strncpy
    ealcdboard.o(i._ZN10EaLcdBoard15storeParametersEPKcS1_PN13LcdController6ConfigES1_S1_PNS_13TouchParams_tEb) refers to strlen.o(.text) for strlen
    ealcdboard.o(i._ZN10EaLcdBoard15storeParametersEPKcS1_PN13LcdController6ConfigES1_S1_PNS_13TouchParams_tEb) refers to ealcdboard.o(i._ZN10EaLcdBoard11eepromWriteEPhtt) for EaLcdBoard::eepromWrite(unsigned char*, unsigned short, unsigned short)
    ealcdboard.o(i._ZN10EaLcdBoard18getTouchParametersEPNS_13TouchParams_tE) refers to ealcdboard.o(i._ZN10EaLcdBoard8getStoreEPNS_7store_tE) for EaLcdBoard::getStore(EaLcdBoard::store_t*)
    ealcdboard.o(i._ZN10EaLcdBoard18getTouchParametersEPNS_13TouchParams_tE) refers to ealcdboard.o(i._ZN10EaLcdBoard10eepromReadEPhtt) for EaLcdBoard::eepromRead(unsigned char*, unsigned short, unsigned short)
    ealcdboard.o(i._ZN10EaLcdBoard20setBacklightContrastEj) refers to ealcdboard.o(i._ZN10EaLcdBoard21pca9532_setBlink0DutyEh) for EaLcdBoard::pca9532_setBlink0Duty(unsigned char)
    ealcdboard.o(i._ZN10EaLcdBoard20setBacklightContrastEj) refers to ealcdboard.o(i._ZN10EaLcdBoard23pca9532_setBlink0PeriodEh) for EaLcdBoard::pca9532_setBlink0Period(unsigned char)
    ealcdboard.o(i._ZN10EaLcdBoard20setBacklightContrastEj) refers to ealcdboard.o(i._ZN10EaLcdBoard21pca9532_setBlink0LedsEt) for EaLcdBoard::pca9532_setBlink0Leds(unsigned short)
    ealcdboard.o(i._ZN10EaLcdBoard21pca9532_setBlink0DutyEh) refers to i2c.o(i._ZN4mbed3I2C5writeEiPKcib) for mbed::I2C::write(int, const char*, int, bool)
    ealcdboard.o(i._ZN10EaLcdBoard21pca9532_setBlink0LedsEt) refers to ealcdboard.o(i._ZN10EaLcdBoard7setLedsEv) for EaLcdBoard::setLeds()
    ealcdboard.o(i._ZN10EaLcdBoard22setDisplayEnableSignalEb) refers to ealcdboard.o(i._ZN10EaLcdBoard15pca9532_setLedsEtt) for EaLcdBoard::pca9532_setLeds(unsigned short, unsigned short)
    ealcdboard.o(i._ZN10EaLcdBoard23pca9532_setBlink0PeriodEh) refers to i2c.o(i._ZN4mbed3I2C5writeEiPKcib) for mbed::I2C::write(int, const char*, int, bool)
    ealcdboard.o(i._ZN10EaLcdBoard4openEPN13LcdController6ConfigEPc) refers to ealcdboard.o(i._ZN10EaLcdBoard12getLcdConfigEPN13LcdController6ConfigE) for EaLcdBoard::getLcdConfig(LcdController::Config*)
    ealcdboard.o(i._ZN10EaLcdBoard4openEPN13LcdController6ConfigEPc) refers to ealcdboard.o(i._ZN10EaLcdBoard10getInitSeqEPci) for EaLcdBoard::getInitSeq(char*, int)
    ealcdboard.o(i._ZN10EaLcdBoard4openEPN13LcdController6ConfigEPc) refers to ealcdboard.o(i._ZN10EaLcdBoard15parseInitStringEPcPN13LcdController6ConfigE) for EaLcdBoard::parseInitString(char*, LcdController::Config*)
    ealcdboard.o(i._ZN10EaLcdBoard4openEPN13LcdController6ConfigEPc) refers to ealcdboard.o(.bss) for eaLcdTmpBuffer
    ealcdboard.o(i._ZN10EaLcdBoard5closeEv) refers to lcdcontroller.o(i._ZN13LcdController8setPowerEb) for LcdController::setPower(bool)
    ealcdboard.o(i._ZN10EaLcdBoard5closeEv) refers to lcdcontroller.o(i._ZN13LcdController5closeEv) for LcdController::close()
    ealcdboard.o(i._ZN10EaLcdBoard7setLedsEv) refers to ealcdboard.o(i._ZN10EaLcdBoard11setLsStatesEtPhh) for EaLcdBoard::setLsStates(unsigned short, unsigned char*, unsigned char)
    ealcdboard.o(i._ZN10EaLcdBoard7setLedsEv) refers to i2c.o(i._ZN4mbed3I2C5writeEiPKcib) for mbed::I2C::write(int, const char*, int, bool)
    ealcdboard.o(i._ZN10EaLcdBoard8getStoreEPNS_7store_tE) refers to ealcdboard.o(i._ZN10EaLcdBoard10eepromReadEPhtt) for EaLcdBoard::eepromRead(unsigned char*, unsigned short, unsigned short)
    ealcdboard.o(i._ZN10EaLcdBoard9execDelayEPcj) refers to ealcdboard.o(i._Z11str_to_uintPcj) for str_to_uint(char*, unsigned)
    ealcdboard.o(i._ZN10EaLcdBoard9execDelayEPcj) refers to wait_api.o(i.wait_ms) for wait_ms
    ealcdboard.o(i._ZN10EaLcdBoardC1E7PinNameS0_) refers to i2c.o(i._ZN4mbed3I2CC1E7PinNameS1_) for mbed::I2C::I2C(PinName, PinName)
    ealcdboard.o(i._ZN10EaLcdBoardC1E7PinNameS0_) refers to lcdcontroller.o(i._ZN13LcdControllerC1Ev) for LcdController::LcdController()
    ealcdboard.o(i._ZN10EaLcdBoardC1E7PinNameS0_) refers to ealcdboard.o(.constdata__ZTV10EaLcdBoard) for vtable for EaLcdBoard
    ealcdboard.o(.ARM.exidx) refers to ealcdboard.o(i._Z9port_pin28PortNamei) for i._Z9port_pin28PortNamei
    ealcdboard.o(.ARM.exidx) refers to ealcdboard.o(i._Z11str_to_uintPcj) for i._Z11str_to_uintPcj
    ealcdboard.o(.ARM.exidx) refers to ealcdboard.o(i._ZN10EaLcdBoardC1E7PinNameS0_) for i._ZN10EaLcdBoardC1E7PinNameS0_
    ealcdboard.o(.ARM.exidx) refers to ealcdboard.o(i._ZN10EaLcdBoard10execPinSetEPcj) for i._ZN10EaLcdBoard10execPinSetEPcj
    ealcdboard.o(.ARM.exidx) refers to ealcdboard.o(i._ZN10EaLcdBoard9execDelayEPcj) for i._ZN10EaLcdBoard9execDelayEPcj
    ealcdboard.o(.ARM.exidx) refers to ealcdboard.o(i._ZN10EaLcdBoard11execSeqCtrlEPcj) for i._ZN10EaLcdBoard11execSeqCtrlEPcj
    ealcdboard.o(.ARM.exidx) refers to ealcdboard.o(i._ZN10EaLcdBoard12checkVersionEPcj) for i._ZN10EaLcdBoard12checkVersionEPcj
    ealcdboard.o(.ARM.exidx) refers to ealcdboard.o(i._ZN10EaLcdBoard15parseInitStringEPcPN13LcdController6ConfigE) for i._ZN10EaLcdBoard15parseInitStringEPcPN13LcdController6ConfigE
    ealcdboard.o(.ARM.exidx) refers to ealcdboard.o(i._ZN10EaLcdBoard10eepromReadEPhtt) for i._ZN10EaLcdBoard10eepromReadEPhtt
    ealcdboard.o(.ARM.exidx) refers to ealcdboard.o(i._ZN10EaLcdBoard8getStoreEPNS_7store_tE) for i._ZN10EaLcdBoard8getStoreEPNS_7store_tE
    ealcdboard.o(.ARM.exidx) refers to ealcdboard.o(i._ZN10EaLcdBoard10getInitSeqEPci) for i._ZN10EaLcdBoard10getInitSeqEPci
    ealcdboard.o(.ARM.exidx) refers to ealcdboard.o(i._ZN10EaLcdBoard12getLcdConfigEPN13LcdController6ConfigE) for i._ZN10EaLcdBoard12getLcdConfigEPN13LcdController6ConfigE
    ealcdboard.o(.ARM.exidx) refers to ealcdboard.o(i._ZN10EaLcdBoard4openEPN13LcdController6ConfigEPc) for i._ZN10EaLcdBoard4openEPN13LcdController6ConfigEPc
    ealcdboard.o(.ARM.exidx) refers to ealcdboard.o(i._ZN10EaLcdBoard5closeEv) for i._ZN10EaLcdBoard5closeEv
    ealcdboard.o(.ARM.exidx) refers to ealcdboard.o(i._ZN10EaLcdBoard14setFrameBufferEj) for i._ZN10EaLcdBoard14setFrameBufferEj
    ealcdboard.o(.ARM.exidx) refers to ealcdboard.o(i._ZN10EaLcdBoard14getDisplayNameEPci) for i._ZN10EaLcdBoard14getDisplayNameEPci
    ealcdboard.o(.ARM.exidx) refers to ealcdboard.o(i._ZN10EaLcdBoard13getDisplayMfgEPci) for i._ZN10EaLcdBoard13getDisplayMfgEPci
    ealcdboard.o(.ARM.exidx) refers to ealcdboard.o(i._ZN10EaLcdBoard15getPowerDownSeqEPci) for i._ZN10EaLcdBoard15getPowerDownSeqEPci
    ealcdboard.o(.ARM.exidx) refers to ealcdboard.o(i._ZN10EaLcdBoard18getTouchParametersEPNS_13TouchParams_tE) for i._ZN10EaLcdBoard18getTouchParametersEPNS_13TouchParams_tE
    ealcdboard.o(.ARM.exidx) refers to ealcdboard.o(i._ZN10EaLcdBoard11eepromWriteEPhtt) for i._ZN10EaLcdBoard11eepromWriteEPhtt
    ealcdboard.o(.ARM.exidx) refers to ealcdboard.o(i._ZN10EaLcdBoard15storeParametersEPKcS1_PN13LcdController6ConfigES1_S1_PNS_13TouchParams_tEb) for i._ZN10EaLcdBoard15storeParametersEPKcS1_PN13LcdController6ConfigES1_S1_PNS_13TouchParams_tEb
    ealcdboard.o(.ARM.exidx) refers to ealcdboard.o(i._ZN10EaLcdBoard11setLsStatesEtPhh) for i._ZN10EaLcdBoard11setLsStatesEtPhh
    ealcdboard.o(.ARM.exidx) refers to ealcdboard.o(i._ZN10EaLcdBoard7setLedsEv) for i._ZN10EaLcdBoard7setLedsEv
    ealcdboard.o(.ARM.exidx) refers to ealcdboard.o(i._ZN10EaLcdBoard15pca9532_setLedsEtt) for i._ZN10EaLcdBoard15pca9532_setLedsEtt
    ealcdboard.o(.ARM.exidx) refers to ealcdboard.o(i._ZN10EaLcdBoard23pca9532_setBlink0PeriodEh) for i._ZN10EaLcdBoard23pca9532_setBlink0PeriodEh
    ealcdboard.o(.ARM.exidx) refers to ealcdboard.o(i._ZN10EaLcdBoard21pca9532_setBlink0DutyEh) for i._ZN10EaLcdBoard21pca9532_setBlink0DutyEh
    ealcdboard.o(.ARM.exidx) refers to ealcdboard.o(i._ZN10EaLcdBoard21pca9532_setBlink0LedsEt) for i._ZN10EaLcdBoard21pca9532_setBlink0LedsEt
    ealcdboard.o(.ARM.exidx) refers to ealcdboard.o(i._ZN10EaLcdBoard15setWriteProtectEb) for i._ZN10EaLcdBoard15setWriteProtectEb
    ealcdboard.o(.ARM.exidx) refers to ealcdboard.o(i._ZN10EaLcdBoard12set3V3SignalEb) for i._ZN10EaLcdBoard12set3V3SignalEb
    ealcdboard.o(.ARM.exidx) refers to ealcdboard.o(i._ZN10EaLcdBoard11set5VSignalEb) for i._ZN10EaLcdBoard11set5VSignalEb
    ealcdboard.o(.ARM.exidx) refers to ealcdboard.o(i._ZN10EaLcdBoard22setDisplayEnableSignalEb) for i._ZN10EaLcdBoard22setDisplayEnableSignalEb
    ealcdboard.o(.ARM.exidx) refers to ealcdboard.o(i._ZN10EaLcdBoard20setBacklightContrastEj) for i._ZN10EaLcdBoard20setBacklightContrastEj
    gfxfb.o(i._ZN5GFXFb9drawPixelEsst) refers to adafruit_gfx.o(i._ZN12Adafruit_GFX5widthEv) for Adafruit_GFX::width()
    gfxfb.o(i._ZN5GFXFb9drawPixelEsst) refers to adafruit_gfx.o(i._ZN12Adafruit_GFX6heightEv) for Adafruit_GFX::height()
    gfxfb.o(i._ZN5GFXFbC1EttPt) refers to adafruit_gfx.o(i._ZN12Adafruit_GFXC2Ess) for Adafruit_GFX::Adafruit_GFX__sub_object(short, short)
    gfxfb.o(i._ZN5GFXFbC1EttPt) refers to gfxfb.o(.constdata__ZTV5GFXFb) for vtable for GFXFb
    gfxfb.o(.ARM.exidx) refers to gfxfb.o(i._ZN5GFXFbC1EttPt) for i._ZN5GFXFbC1EttPt
    gfxfb.o(.ARM.exidx) refers to gfxfb.o(i._ZN5GFXFb9drawPixelEsst) for i._ZN5GFXFb9drawPixelEsst
    gfxfb.o(.ARM.exidx) refers to gfxfb.o(i._ZN5GFXFb13drawFastVLineEssst) for i._ZN5GFXFb13drawFastVLineEssst
    gfxfb.o(.ARM.exidx) refers to gfxfb.o(i._ZN5GFXFb13drawFastHLineEssst) for i._ZN5GFXFb13drawFastHLineEssst
    gfxfb.o(.ARM.exidx) refers to gfxfb.o(i._ZN5GFXFb10fillScreenEt) for i._ZN5GFXFb10fillScreenEt
    gfxfb.o(.ARM.exidx) refers to gfxfb.o(i._ZN5GFXFb11writeStringEPKc) for i._ZN5GFXFb11writeStringEPKc
    gfxfb.o(.ARM.exidx) refers to gfxfb.o(i._ZN5GFXFb14getStringWidthEPKc) for i._ZN5GFXFb14getStringWidthEPKc
    gfxfb.o(.ARM.exidx) refers to gfxfb.o(i._ZN5GFXFb15getStringHeightEPKc) for i._ZN5GFXFb15getStringHeightEPKc
    sdram.o(i._Z10sdram_initv) refers to sdram.o(i._Z9pinConfigv) for pinConfig()
    sdram.o(i._Z10sdram_initv) refers to wait_api.o(i.wait) for wait
    sdram.o(i._Z10sdram_initv) refers to sdram.o(i._Z11calibrationv) for calibration()
    sdram.o(i._Z10sdram_initv) refers to sdram.o(i._Z11find_cmddlyv) for find_cmddly()
    sdram.o(i._Z10sdram_initv) refers to sdram.o(i._Z13find_fbclkdlyv) for find_fbclkdly()
    sdram.o(i._Z10sdram_initv) refers to sdram.o(i._Z13adjust_timingv) for adjust_timing()
    sdram.o(i._Z10sdram_initv) refers to sdram.o(.data) for initialized
    sdram.o(i._Z11find_cmddlyv) refers to sdram.o(i._Z10sdram_testv) for sdram_test()
    sdram.o(i._Z13adjust_timingv) refers to sdram.o(i._Z11calibrationv) for calibration()
    sdram.o(i._Z13adjust_timingv) refers to sdram.o(.data) for ringosccount
    sdram.o(i._Z13find_fbclkdlyv) refers to sdram.o(i._Z10sdram_testv) for sdram_test()
    sdram.o(i._Z24sdram_disableMallocSdramv) refers to sdram.o(.data) for okToUseSdramForHeap
    sdram.o(i.__rt_heap_extend) refers to sdram.o(i._Z10sdram_initv) for sdram_init()
    sdram.o(i.__rt_heap_extend) refers to sdram.o(.data) for okToUseSdramForHeap
    sdram.o(.ARM.exidx) refers to sdram.o(i._Z11calibrationv) for i._Z11calibrationv
    sdram.o(.ARM.exidx) refers to sdram.o(i._Z13adjust_timingv) for i._Z13adjust_timingv
    sdram.o(.ARM.exidx) refers to sdram.o(i._Z10sdram_testv) for i._Z10sdram_testv
    sdram.o(.ARM.exidx) refers to sdram.o(i._Z13find_fbclkdlyv) for i._Z13find_fbclkdlyv
    sdram.o(.ARM.exidx) refers to sdram.o(i._Z11find_cmddlyv) for i._Z11find_cmddlyv
    sdram.o(.ARM.exidx) refers to sdram.o(i._Z9pinConfigv) for i._Z9pinConfigv
    sdram.o(.ARM.exidx) refers to sdram.o(i._Z10sdram_initv) for i._Z10sdram_initv
    sdram.o(.ARM.exidx) refers to sdram.o(i.__rt_heap_extend) for i.__rt_heap_extend
    sdram.o(.ARM.exidx) refers to sdram.o(i.__reserved_stack_size) for i.__reserved_stack_size
    sdram.o(.ARM.exidx) refers to sdram.o(i._Z24sdram_disableMallocSdramv) for i._Z24sdram_disableMallocSdramv
    filelike.o(i._ZN4mbed8FileLikeC2EPKc) refers to filebase.o(i._ZN4mbed8FileBaseC1EPKcNS_8PathTypeE) for mbed::FileBase::FileBase(const char*, mbed::PathType)
    filelike.o(i._ZN4mbed8FileLikeC2EPKc) refers to retarget.o(.constdata__ZTVN4mbed10FileHandleE) for vtable for mbed::FileHandle
    filelike.o(i._ZN4mbed8FileLikeC2EPKc) refers to filelike.o(.constdata__ZTVN4mbed8FileLikeE) for vtable for mbed::FileLike
    filelike.o(i._ZN4mbed8FileLikeD0Ev) refers to filelike.o(i._ZN4mbed8FileLikeD2Ev) for mbed::FileLike::~FileLike__sub_object()
    filelike.o(i._ZN4mbed8FileLikeD0Ev) refers to delete.o(i._ZdlPv) for operator delete (void*)
    filelike.o(i._ZN4mbed8FileLikeD2Ev) refers to filebase.o(i._ZN4mbed8FileBaseD1Ev) for mbed::FileBase::~FileBase()
    filelike.o(i._ZN4mbed8FileLikeD2Ev) refers to retarget.o(i._ZN4mbed10FileHandleD2Ev) for mbed::FileHandle::~FileHandle__sub_object()
    filelike.o(i._ZThn4_N4mbed8FileLikeD0Ev) refers to filelike.o(i._ZN4mbed8FileLikeD0Ev) for mbed::FileLike::~FileLike__deallocating()
    filelike.o(i._ZThn4_N4mbed8FileLikeD1Ev) refers to filelike.o(i._ZN4mbed8FileLikeD2Ev) for mbed::FileLike::~FileLike__sub_object()
    filelike.o(.ARM.exidx) refers to filelike.o(i._ZN4mbed8FileLikeC2EPKc) for i._ZN4mbed8FileLikeC2EPKc
    filelike.o(.ARM.exidx) refers to filelike.o(i._ZN4mbed8FileLikeD2Ev) for i._ZN4mbed8FileLikeD2Ev
    filelike.o(.ARM.exidx) refers to filelike.o(i._ZN4mbed8FileLikeD0Ev) for i._ZN4mbed8FileLikeD0Ev
    filelike.o(.ARM.exidx) refers to filelike.o(i._ZThn4_N4mbed8FileLikeD0Ev) for i._ZThn4_N4mbed8FileLikeD0Ev
    filelike.o(.ARM.exidx) refers to filelike.o(i._ZThn4_N4mbed8FileLikeD1Ev) for i._ZThn4_N4mbed8FileLikeD1Ev
    pinmap.o(i.pin_function) refers to assert.o(i.mbed_assert_internal) for mbed_assert_internal
    pinmap.o(i.pin_mode) refers to assert.o(i.mbed_assert_internal) for mbed_assert_internal
    us_ticker.o(i.us_ticker_init) refers to cmsis_nvic.o(i.NVIC_SetVector) for NVIC_SetVector
    us_ticker.o(i.us_ticker_init) refers to us_ticker.o(.data) for us_ticker_inited
    us_ticker.o(i.us_ticker_init) refers to system_lpc407x_8x_177x_8x.o(.data) for PeripheralClock
    us_ticker.o(i.us_ticker_init) refers to us_ticker_api.o(i.us_ticker_irq_handler) for us_ticker_irq_handler
    us_ticker.o(i.us_ticker_read) refers to us_ticker.o(i.us_ticker_init) for us_ticker_init
    us_ticker.o(i.us_ticker_read) refers to us_ticker.o(.data) for us_ticker_inited
    i2c_api.o(i.i2c_byte_read) refers to i2c_api.o(i.i2c_do_read) for i2c_do_read
    i2c_api.o(i.i2c_byte_write) refers to i2c_api.o(i.i2c_do_write) for i2c_do_write
    i2c_api.o(i.i2c_clear_SI) refers to i2c_api.o(i.i2c_conclr) for i2c_conclr
    i2c_api.o(i.i2c_do_read) refers to i2c_api.o(i.i2c_conclr) for i2c_conclr
    i2c_api.o(i.i2c_do_read) refers to i2c_api.o(i.i2c_conset) for i2c_conset
    i2c_api.o(i.i2c_do_read) refers to i2c_api.o(i.i2c_clear_SI) for i2c_clear_SI
    i2c_api.o(i.i2c_do_read) refers to i2c_api.o(i.i2c_wait_SI) for i2c_wait_SI
    i2c_api.o(i.i2c_do_write) refers to i2c_api.o(i.i2c_clear_SI) for i2c_clear_SI
    i2c_api.o(i.i2c_do_write) refers to i2c_api.o(i.i2c_wait_SI) for i2c_wait_SI
    i2c_api.o(i.i2c_do_write) refers to i2c_api.o(i.i2c_status) for i2c_status
    i2c_api.o(i.i2c_frequency) refers to system_lpc407x_8x_177x_8x.o(.data) for PeripheralClock
    i2c_api.o(i.i2c_init) refers to pinmap_common.o(i.pinmap_peripheral) for pinmap_peripheral
    i2c_api.o(i.i2c_init) refers to pinmap_common.o(i.pinmap_merge) for pinmap_merge
    i2c_api.o(i.i2c_init) refers to assert.o(i.mbed_assert_internal) for mbed_assert_internal
    i2c_api.o(i.i2c_init) refers to i2c_api.o(i.i2c_frequency) for i2c_frequency
    i2c_api.o(i.i2c_init) refers to i2c_api.o(i.i2c_conclr) for i2c_conclr
    i2c_api.o(i.i2c_init) refers to pinmap_common.o(i.pinmap_pinout) for pinmap_pinout
    i2c_api.o(i.i2c_init) refers to pinmap.o(i.pin_mode) for pin_mode
    i2c_api.o(i.i2c_init) refers to i2c_api.o(.constdata) for PinMap_I2C_SDA
    i2c_api.o(i.i2c_read) refers to i2c_api.o(i.i2c_start) for i2c_start
    i2c_api.o(i.i2c_read) refers to i2c_api.o(i.i2c_stop) for i2c_stop
    i2c_api.o(i.i2c_read) refers to i2c_api.o(i.i2c_do_write) for i2c_do_write
    i2c_api.o(i.i2c_read) refers to i2c_api.o(i.i2c_do_read) for i2c_do_read
    i2c_api.o(i.i2c_read) refers to i2c_api.o(i.i2c_status) for i2c_status
    i2c_api.o(i.i2c_reset) refers to i2c_api.o(i.i2c_stop) for i2c_stop
    i2c_api.o(i.i2c_slave_address) refers to i2c_api.o(.constdata) for I2C_addr_offset
    i2c_api.o(i.i2c_slave_mode) refers to i2c_api.o(i.i2c_conclr) for i2c_conclr
    i2c_api.o(i.i2c_slave_mode) refers to i2c_api.o(i.i2c_conset) for i2c_conset
    i2c_api.o(i.i2c_slave_read) refers to i2c_api.o(i.i2c_clear_SI) for i2c_clear_SI
    i2c_api.o(i.i2c_slave_read) refers to i2c_api.o(i.i2c_wait_SI) for i2c_wait_SI
    i2c_api.o(i.i2c_slave_read) refers to i2c_api.o(i.i2c_status) for i2c_status
    i2c_api.o(i.i2c_slave_read) refers to i2c_api.o(i.i2c_stop) for i2c_stop
    i2c_api.o(i.i2c_slave_receive) refers to i2c_api.o(i.i2c_status) for i2c_status
    i2c_api.o(i.i2c_slave_write) refers to i2c_api.o(i.i2c_do_write) for i2c_do_write
    i2c_api.o(i.i2c_slave_write) refers to i2c_api.o(i.i2c_stop) for i2c_stop
    i2c_api.o(i.i2c_slave_write) refers to i2c_api.o(i.i2c_clear_SI) for i2c_clear_SI
    i2c_api.o(i.i2c_write) refers to i2c_api.o(i.i2c_start) for i2c_start
    i2c_api.o(i.i2c_write) refers to i2c_api.o(i.i2c_stop) for i2c_stop
    i2c_api.o(i.i2c_write) refers to i2c_api.o(i.i2c_do_write) for i2c_do_write
    pwmout_api.o(i.pwmout_init) refers to pinmap_common.o(i.pinmap_peripheral) for pinmap_peripheral
    pwmout_api.o(i.pwmout_init) refers to assert.o(i.mbed_assert_internal) for mbed_assert_internal
    pwmout_api.o(i.pwmout_init) refers to pwmout_api.o(i.pwmout_period_ms) for pwmout_period_ms
    pwmout_api.o(i.pwmout_init) refers to pwmout_api.o(i.pwmout_write) for pwmout_write
    pwmout_api.o(i.pwmout_init) refers to pinmap_common.o(i.pinmap_pinout) for pinmap_pinout
    pwmout_api.o(i.pwmout_init) refers to pwmout_api.o(.constdata) for PinMap_PWM
    pwmout_api.o(i.pwmout_init) refers to pwmout_api.o(.conststring) for .conststring
    pwmout_api.o(i.pwmout_init) refers to system_lpc407x_8x_177x_8x.o(.data) for PeripheralClock
    pwmout_api.o(i.pwmout_init) refers to pwmout_api.o(.data) for pwm_clock_mhz
    pwmout_api.o(i.pwmout_period) refers to pwmout_api.o(i.pwmout_period_us) for pwmout_period_us
    pwmout_api.o(i.pwmout_period_ms) refers to pwmout_api.o(i.pwmout_period_us) for pwmout_period_us
    pwmout_api.o(i.pwmout_period_us) refers to pwmout_api.o(.data) for pwm_clock_mhz
    pwmout_api.o(i.pwmout_pulsewidth) refers to pwmout_api.o(i.pwmout_pulsewidth_us) for pwmout_pulsewidth_us
    pwmout_api.o(i.pwmout_pulsewidth_ms) refers to pwmout_api.o(i.pwmout_pulsewidth_us) for pwmout_pulsewidth_us
    pwmout_api.o(i.pwmout_pulsewidth_us) refers to pwmout_api.o(.data) for pwm_clock_mhz
    retarget.o(i.$Sub$$main) refers to retarget.o(i.mbed_sdk_init) for mbed_sdk_init
    retarget.o(i.$Sub$$main) refers to retarget.o(i.mbed_main) for mbed_main
    retarget.o(i.$Sub$$main) refers to main.o(i.main) for $Super$$main
    retarget.o(i._Z11init_serialv) refers to serial_api.o(i.serial_init) for serial_init
    retarget.o(i._Z11init_serialv) refers to serial_api.o(.data) for stdio_uart_inited
    retarget.o(i._ZN4mbed10FileHandleD0Ev) refers to retarget.o(i._ZN4mbed10FileHandleD2Ev) for mbed::FileHandle::~FileHandle__sub_object()
    retarget.o(i._ZN4mbed10FileHandleD0Ev) refers to delete.o(i._ZdlPv) for operator delete (void*)
    retarget.o(i._ZN4mbed10FileHandleD2Ev) refers to retarget.o(.constdata__ZTVN4mbed10FileHandleE) for vtable for mbed::FileHandle
    retarget.o(i._ZN4mbed10FileHandleD2Ev) refers to retarget.o(.bss) for filehandles
    retarget.o(i._ZN4mbed26mbed_set_unbuffered_streamEPSt6__FILE) refers to setbuf.o(.text) for setbuf
    retarget.o(i._ZN4mbed9mbed_getcEPSt6__FILE) refers to fgetc.o(i.fgetc) for fgetc
    retarget.o(i._ZN4mbed9mbed_getsEPciPSt6__FILE) refers to fgets.o(.text) for fgets
    retarget.o(i._sys_close) refers to retarget.o(.bss) for filehandles
    retarget.o(i._sys_ensure) refers to retarget.o(.bss) for filehandles
    retarget.o(i._sys_flen) refers to retarget.o(.bss) for filehandles
    retarget.o(i._sys_istty) refers to retarget.o(.bss) for filehandles
    retarget.o(i._sys_open) refers to _scanf_int.o(.text) for _scanf_int
    retarget.o(i._sys_open) refers to strcmpv7m.o(.text) for strcmp
    retarget.o(i._sys_open) refers to retarget.o(i._Z11init_serialv) for init_serial()
    retarget.o(i._sys_open) refers to __0sscanf.o(.text) for __0sscanf
    retarget.o(i._sys_open) refers to filepath.o(i._ZN4mbed8FilePathC1EPKc) for mbed::FilePath::FilePath(const char*)
    retarget.o(i._sys_open) refers to filepath.o(i._ZN4mbed8FilePath6existsEv) for mbed::FilePath::exists()
    retarget.o(i._sys_open) refers to filepath.o(i._ZN4mbed8FilePath6isFileEv) for mbed::FilePath::isFile()
    retarget.o(i._sys_open) refers to filepath.o(i._ZN4mbed8FilePath4fileEv) for mbed::FilePath::file()
    retarget.o(i._sys_open) refers to filepath.o(i._ZN4mbed8FilePath10fileSystemEv) for mbed::FilePath::fileSystem()
    retarget.o(i._sys_open) refers to filepath.o(i._ZN4mbed8FilePath8fileNameEv) for mbed::FilePath::fileName()
    retarget.o(i._sys_open) refers to retarget.o(.constdata) for __stdin_name
    retarget.o(i._sys_open) refers to retarget.o(.bss) for filehandles
    retarget.o(i._sys_read) refers to retarget.o(i._Z11init_serialv) for init_serial()
    retarget.o(i._sys_read) refers to serial_api.o(i.serial_getc) for serial_getc
    retarget.o(i._sys_read) refers to serial_api.o(.data) for stdio_uart_inited
    retarget.o(i._sys_read) refers to retarget.o(.bss) for filehandles
    retarget.o(i._sys_seek) refers to retarget.o(.bss) for filehandles
    retarget.o(i._sys_write) refers to retarget.o(i._Z11init_serialv) for init_serial()
    retarget.o(i._sys_write) refers to serial_api.o(i.serial_putc) for serial_putc
    retarget.o(i._sys_write) refers to serial_api.o(.data) for stdio_uart_inited
    retarget.o(i._sys_write) refers to retarget.o(.bss) for filehandles
    retarget.o(i.exit) refers to fflush.o(.text) for fflush
    retarget.o(i.exit) refers to board.o(i.mbed_die) for mbed_die
    retarget.o(i.exit) refers to stdio_streams.o(.bss) for __stdout
    retarget.o(i.exit) refers to stdio_streams.o(.bss) for __stderr
    retarget.o(i.mkdir) refers to filepath.o(i._ZN4mbed8FilePathC1EPKc) for mbed::FilePath::FilePath(const char*)
    retarget.o(i.mkdir) refers to filepath.o(i._ZN4mbed8FilePath10fileSystemEv) for mbed::FilePath::fileSystem()
    retarget.o(i.mkdir) refers to filepath.o(i._ZN4mbed8FilePath8fileNameEv) for mbed::FilePath::fileName()
    retarget.o(i.opendir) refers to filesystemlike.o(i._ZN4mbed14FileSystemLike7opendirEv) for mbed::FileSystemLike::opendir()
    retarget.o(i.opendir) refers to filepath.o(i._ZN4mbed8FilePathC1EPKc) for mbed::FilePath::FilePath(const char*)
    retarget.o(i.opendir) refers to filepath.o(i._ZN4mbed8FilePath10fileSystemEv) for mbed::FilePath::fileSystem()
    retarget.o(i.opendir) refers to filepath.o(i._ZN4mbed8FilePath8fileNameEv) for mbed::FilePath::fileName()
    retarget.o(i.remove) refers to filepath.o(i._ZN4mbed8FilePathC1EPKc) for mbed::FilePath::FilePath(const char*)
    retarget.o(i.remove) refers to filepath.o(i._ZN4mbed8FilePath10fileSystemEv) for mbed::FilePath::fileSystem()
    retarget.o(i.remove) refers to filepath.o(i._ZN4mbed8FilePath8fileNameEv) for mbed::FilePath::fileName()
    retarget.o(i.rename) refers to filepath.o(i._ZN4mbed8FilePathC1EPKc) for mbed::FilePath::FilePath(const char*)
    retarget.o(i.rename) refers to filepath.o(i._ZN4mbed8FilePath10fileSystemEv) for mbed::FilePath::fileSystem()
    retarget.o(i.rename) refers to filepath.o(i._ZN4mbed8FilePath8fileNameEv) for mbed::FilePath::fileName()
    retarget.o(.ARM.exidx) refers to retarget.o(i._Z11init_serialv) for i._Z11init_serialv
    retarget.o(.ARM.exidx) refers to retarget.o(i._sys_open) for i._sys_open
    retarget.o(.ARM.exidx) refers to retarget.o(i._sys_close) for i._sys_close
    retarget.o(.ARM.exidx) refers to retarget.o(i._sys_write) for i._sys_write
    retarget.o(.ARM.exidx) refers to retarget.o(i._sys_read) for i._sys_read
    retarget.o(.ARM.exidx) refers to retarget.o(i._sys_istty) for i._sys_istty
    retarget.o(.ARM.exidx) refers to retarget.o(i._sys_seek) for i._sys_seek
    retarget.o(.ARM.exidx) refers to retarget.o(i._sys_ensure) for i._sys_ensure
    retarget.o(.ARM.exidx) refers to retarget.o(i._sys_flen) for i._sys_flen
    retarget.o(.ARM.exidx) refers to retarget.o(i.remove) for i.remove
    retarget.o(.ARM.exidx) refers to retarget.o(i.rename) for i.rename
    retarget.o(.ARM.exidx) refers to retarget.o(i.tmpnam) for i.tmpnam
    retarget.o(.ARM.exidx) refers to retarget.o(i.tmpfile) for i.tmpfile
    retarget.o(.ARM.exidx) refers to retarget.o(i._sys_command_string) for i._sys_command_string
    retarget.o(.ARM.exidx) refers to retarget.o(i.opendir) for i.opendir
    retarget.o(.ARM.exidx) refers to retarget.o(i.readdir) for i.readdir
    retarget.o(.ARM.exidx) refers to retarget.o(i.closedir) for i.closedir
    retarget.o(.ARM.exidx) refers to retarget.o(i.rewinddir) for i.rewinddir
    retarget.o(.ARM.exidx) refers to retarget.o(i.telldir) for i.telldir
    retarget.o(.ARM.exidx) refers to retarget.o(i.seekdir) for i.seekdir
    retarget.o(.ARM.exidx) refers to retarget.o(i.mkdir) for i.mkdir
    retarget.o(.ARM.exidx) refers to retarget.o(i.mbed_main) for i.mbed_main
    retarget.o(.ARM.exidx) refers to retarget.o(i.mbed_sdk_init) for i.mbed_sdk_init
    retarget.o(.ARM.exidx) refers to retarget.o(i.$Sub$$main) for i.$Sub$$main
    retarget.o(.ARM.exidx) refers to retarget.o(i.exit) for i.exit
    retarget.o(.ARM.exidx) refers to retarget.o(i._ZN4mbed10FileHandleD2Ev) for i._ZN4mbed10FileHandleD2Ev
    retarget.o(.ARM.exidx) refers to retarget.o(i._ZN4mbed10FileHandleD0Ev) for i._ZN4mbed10FileHandleD0Ev
    retarget.o(.ARM.exidx) refers to retarget.o(i._ZN4mbed26mbed_set_unbuffered_streamEPSt6__FILE) for i._ZN4mbed26mbed_set_unbuffered_streamEPSt6__FILE
    retarget.o(.ARM.exidx) refers to retarget.o(i._ZN4mbed9mbed_getcEPSt6__FILE) for i._ZN4mbed9mbed_getcEPSt6__FILE
    retarget.o(.ARM.exidx) refers to retarget.o(i._ZN4mbed9mbed_getsEPciPSt6__FILE) for i._ZN4mbed9mbed_getsEPciPSt6__FILE
    lcdcontroller.o(i._ZN13LcdController15getClockDivisorEi) refers to system_lpc407x_8x_177x_8x.o(.data) for SystemCoreClock
    lcdcontroller.o(i._ZN13LcdController4initEPNS_6ConfigE) refers to lcdcontroller.o(i._ZN13LcdController15getClockDivisorEi) for LcdController::getClockDivisor(int)
    lcdcontroller.o(i._ZN13LcdController4openEPNS_6ConfigE) refers to lcdcontroller.o(i._ZN13LcdController9pinConfigEv) for LcdController::pinConfig()
    lcdcontroller.o(i._ZN13LcdController4openEPNS_6ConfigE) refers to lcdcontroller.o(i._ZN13LcdController4initEPNS_6ConfigE) for LcdController::init(LcdController::Config*)
    lcdcontroller.o(i._ZN13LcdController4openEPNS_6ConfigE) refers to lcdcontroller.o(.data) for LcdController::_lcdControllerUsed
    lcdcontroller.o(i._ZN13LcdController5closeEv) refers to lcdcontroller.o(.data) for LcdController::_lcdControllerUsed
    lcdcontroller.o(.ARM.exidx) refers to lcdcontroller.o(i._ZN13LcdControllerC1Ev) for i._ZN13LcdControllerC1Ev
    lcdcontroller.o(.ARM.exidx) refers to lcdcontroller.o(i._ZN13LcdController15getClockDivisorEi) for i._ZN13LcdController15getClockDivisorEi
    lcdcontroller.o(.ARM.exidx) refers to lcdcontroller.o(i._ZN13LcdController4initEPNS_6ConfigE) for i._ZN13LcdController4initEPNS_6ConfigE
    lcdcontroller.o(.ARM.exidx) refers to lcdcontroller.o(i._ZN13LcdController9pinConfigEv) for i._ZN13LcdController9pinConfigEv
    lcdcontroller.o(.ARM.exidx) refers to lcdcontroller.o(i._ZN13LcdController4openEPNS_6ConfigE) for i._ZN13LcdController4openEPNS_6ConfigE
    lcdcontroller.o(.ARM.exidx) refers to lcdcontroller.o(i._ZN13LcdController5closeEv) for i._ZN13LcdController5closeEv
    lcdcontroller.o(.ARM.exidx) refers to lcdcontroller.o(i._ZN13LcdController14setFrameBufferEj) for i._ZN13LcdController14setFrameBufferEj
    lcdcontroller.o(.ARM.exidx) refers to lcdcontroller.o(i._ZN13LcdController8setPowerEb) for i._ZN13LcdController8setPowerEb
    filebase.o(i._ZN4mbed8FileBase3getEi) refers to filebase.o(.data) for mbed::FileBase::_head
    filebase.o(i._ZN4mbed8FileBase6lookupEPKcj) refers to strncmp.o(.text) for strncmp
    filebase.o(i._ZN4mbed8FileBase6lookupEPKcj) refers to strlen.o(.text) for strlen
    filebase.o(i._ZN4mbed8FileBase6lookupEPKcj) refers to filebase.o(.data) for mbed::FileBase::_head
    filebase.o(i._ZN4mbed8FileBaseC1EPKcNS_8PathTypeE) refers to filebase.o(.constdata__ZTVN4mbed8FileBaseE) for vtable for mbed::FileBase
    filebase.o(i._ZN4mbed8FileBaseC1EPKcNS_8PathTypeE) refers to filebase.o(.data) for mbed::FileBase::_head
    filebase.o(i._ZN4mbed8FileBaseD0Ev) refers to filebase.o(i._ZN4mbed8FileBaseD1Ev) for mbed::FileBase::~FileBase()
    filebase.o(i._ZN4mbed8FileBaseD0Ev) refers to delete.o(i._ZdlPv) for operator delete (void*)
    filebase.o(i._ZN4mbed8FileBaseD1Ev) refers to filebase.o(.constdata__ZTVN4mbed8FileBaseE) for vtable for mbed::FileBase
    filebase.o(i._ZN4mbed8FileBaseD1Ev) refers to filebase.o(.data) for mbed::FileBase::_head
    filebase.o(.ARM.exidx) refers to filebase.o(i._ZN4mbed8FileBaseC1EPKcNS_8PathTypeE) for i._ZN4mbed8FileBaseC1EPKcNS_8PathTypeE
    filebase.o(.ARM.exidx) refers to filebase.o(i._ZN4mbed8FileBaseD1Ev) for i._ZN4mbed8FileBaseD1Ev
    filebase.o(.ARM.exidx) refers to filebase.o(i._ZN4mbed8FileBaseD0Ev) for i._ZN4mbed8FileBaseD0Ev
    filebase.o(.ARM.exidx) refers to filebase.o(i._ZN4mbed8FileBase7getNameEv) for i._ZN4mbed8FileBase7getNameEv
    filebase.o(.ARM.exidx) refers to filebase.o(i._ZN4mbed8FileBase11getPathTypeEv) for i._ZN4mbed8FileBase11getPathTypeEv
    filebase.o(.ARM.exidx) refers to filebase.o(i._ZN4mbed8FileBase6lookupEPKcj) for i._ZN4mbed8FileBase6lookupEPKcj
    filebase.o(.ARM.exidx) refers to filebase.o(i._ZN4mbed8FileBase3getEi) for i._ZN4mbed8FileBase3getEi
    filepath.o(i._ZN4mbed8FilePath10fileSystemEv) refers to filepath.o(i._ZN4mbed8FilePath12isFileSystemEv) for mbed::FilePath::isFileSystem()
    filepath.o(i._ZN4mbed8FilePath12isFileSystemEv) refers to filebase.o(i._ZN4mbed8FileBase11getPathTypeEv) for mbed::FileBase::getPathType()
    filepath.o(i._ZN4mbed8FilePath4fileEv) refers to filepath.o(i._ZN4mbed8FilePath6isFileEv) for mbed::FilePath::isFile()
    filepath.o(i._ZN4mbed8FilePath6isFileEv) refers to filebase.o(i._ZN4mbed8FileBase11getPathTypeEv) for mbed::FileBase::getPathType()
    filepath.o(i._ZN4mbed8FilePathC1EPKc) refers to filebase.o(i._ZN4mbed8FileBase6lookupEPKcj) for mbed::FileBase::lookup(const char*, unsigned)
    filepath.o(.ARM.exidx) refers to filepath.o(i._ZN4mbed8FilePathC1EPKc) for i._ZN4mbed8FilePathC1EPKc
    filepath.o(.ARM.exidx) refers to filepath.o(i._ZN4mbed8FilePath8fileNameEv) for i._ZN4mbed8FilePath8fileNameEv
    filepath.o(.ARM.exidx) refers to filepath.o(i._ZN4mbed8FilePath12isFileSystemEv) for i._ZN4mbed8FilePath12isFileSystemEv
    filepath.o(.ARM.exidx) refers to filepath.o(i._ZN4mbed8FilePath10fileSystemEv) for i._ZN4mbed8FilePath10fileSystemEv
    filepath.o(.ARM.exidx) refers to filepath.o(i._ZN4mbed8FilePath6isFileEv) for i._ZN4mbed8FilePath6isFileEv
    filepath.o(.ARM.exidx) refers to filepath.o(i._ZN4mbed8FilePath4fileEv) for i._ZN4mbed8FilePath4fileEv
    filepath.o(.ARM.exidx) refers to filepath.o(i._ZN4mbed8FilePath6existsEv) for i._ZN4mbed8FilePath6existsEv
    filesystemlike.o(i._ZN4mbed14FileSystemLike7opendirEv) refers to new.o(i._Znwj) for operator new(unsigned)
    filesystemlike.o(i._ZN4mbed14FileSystemLike7opendirEv) refers to rt_memclr_w.o(.text) for __aeabi_memclr4
    filesystemlike.o(i._ZN4mbed14FileSystemLike7opendirEv) refers to filesystemlike.o(.constdata__ZTVN4mbed9DirHandleE) for vtable for mbed::DirHandle
    filesystemlike.o(i._ZN4mbed14FileSystemLike7opendirEv) refers to filesystemlike.o(.constdata__ZTVN4mbed13BaseDirHandleE) for vtable for mbed::BaseDirHandle
    filesystemlike.o(i._ZN4mbed14FileSystemLikeC2EPKc) refers to filebase.o(i._ZN4mbed8FileBaseC1EPKcNS_8PathTypeE) for mbed::FileBase::FileBase(const char*, mbed::PathType)
    filesystemlike.o(i._ZN4mbed14FileSystemLikeC2EPKc) refers to filesystemlike.o(.constdata__ZTVN4mbed14FileSystemLikeE) for vtable for mbed::FileSystemLike
    filesystemlike.o(i._ZN4mbed14FileSystemLikeD0Ev) refers to filesystemlike.o(i._ZN4mbed14FileSystemLikeD2Ev) for mbed::FileSystemLike::~FileSystemLike__sub_object()
    filesystemlike.o(i._ZN4mbed14FileSystemLikeD0Ev) refers to delete.o(i._ZdlPv) for operator delete (void*)
    filesystemlike.o(i._ZN4mbed14FileSystemLikeD2Ev) refers to filebase.o(i._ZN4mbed8FileBaseD1Ev) for mbed::FileBase::~FileBase()
    filesystemlike.o(.ARM.exidx) refers to filesystemlike.o(i._ZN4mbed14FileSystemLikeC2EPKc) for i._ZN4mbed14FileSystemLikeC2EPKc
    filesystemlike.o(.ARM.exidx) refers to filesystemlike.o(i._ZN4mbed14FileSystemLikeD2Ev) for i._ZN4mbed14FileSystemLikeD2Ev
    filesystemlike.o(.ARM.exidx) refers to filesystemlike.o(i._ZN4mbed14FileSystemLikeD0Ev) for i._ZN4mbed14FileSystemLikeD0Ev
    filesystemlike.o(.ARM.exidx) refers to filesystemlike.o(i._ZN4mbed14FileSystemLike7opendirEv) for i._ZN4mbed14FileSystemLike7opendirEv
    serial_api.o(i.serial_baud) refers to system_lpc407x_8x_177x_8x.o(.data) for PeripheralClock
    serial_api.o(i.serial_format) refers to assert.o(i.mbed_assert_internal) for mbed_assert_internal
    serial_api.o(i.serial_format) refers to serial_api.o(.conststring) for .conststring
    serial_api.o(i.serial_free) refers to serial_api.o(.bss) for serial_irq_ids
    serial_api.o(i.serial_getc) refers to serial_api.o(i.serial_readable) for serial_readable
    serial_api.o(i.serial_init) refers to pinmap_common.o(i.pinmap_peripheral) for pinmap_peripheral
    serial_api.o(i.serial_init) refers to pinmap_common.o(i.pinmap_merge) for pinmap_merge
    serial_api.o(i.serial_init) refers to assert.o(i.mbed_assert_internal) for mbed_assert_internal
    serial_api.o(i.serial_init) refers to serial_api.o(i.serial_baud) for serial_baud
    serial_api.o(i.serial_init) refers to serial_api.o(i.serial_format) for serial_format
    serial_api.o(i.serial_init) refers to pinmap_common.o(i.pinmap_pinout) for pinmap_pinout
    serial_api.o(i.serial_init) refers to pinmap.o(i.pin_mode) for pin_mode
    serial_api.o(i.serial_init) refers to serial_api.o(.constdata) for PinMap_UART_TX
    serial_api.o(i.serial_init) refers to serial_api.o(.conststring) for .conststring
    serial_api.o(i.serial_init) refers to serial_api.o(.data) for stdio_uart_inited
    serial_api.o(i.serial_irq_handler) refers to serial_api.o(.data) for irq_handler
    serial_api.o(i.serial_irq_handler) refers to serial_api.o(.bss) for serial_irq_ids
    serial_api.o(i.serial_irq_set) refers to cmsis_nvic.o(i.NVIC_SetVector) for NVIC_SetVector
    serial_api.o(i.serial_irq_set) refers to serial_api.o(i.uart0_irq) for uart0_irq
    serial_api.o(i.serial_irq_set) refers to serial_api.o(i.uart1_irq) for uart1_irq
    serial_api.o(i.serial_irq_set) refers to serial_api.o(i.uart2_irq) for uart2_irq
    serial_api.o(i.serial_irq_set) refers to serial_api.o(i.uart3_irq) for uart3_irq
    serial_api.o(i.serial_irq_set) refers to serial_api.o(i.uart4_irq) for uart4_irq
    serial_api.o(i.serial_pinout_tx) refers to pinmap_common.o(i.pinmap_pinout) for pinmap_pinout
    serial_api.o(i.serial_pinout_tx) refers to serial_api.o(.constdata) for PinMap_UART_TX
    serial_api.o(i.serial_putc) refers to serial_api.o(i.serial_writable) for serial_writable
    serial_api.o(i.uart0_irq) refers to serial_api.o(i.uart_irq) for uart_irq
    serial_api.o(i.uart1_irq) refers to serial_api.o(i.uart_irq) for uart_irq
    serial_api.o(i.uart2_irq) refers to serial_api.o(i.uart_irq) for uart_irq
    serial_api.o(i.uart3_irq) refers to serial_api.o(i.uart_irq) for uart_irq
    serial_api.o(i.uart4_irq) refers to serial_api.o(i.uart_irq) for uart_irq
    serial_api.o(i.uart_irq) refers to serial_api.o(.bss) for serial_irq_ids
    serial_api.o(i.uart_irq) refers to serial_api.o(.data) for irq_handler
    board.o(i.gpio_write) refers to assert.o(i.mbed_assert_internal) for mbed_assert_internal
    board.o(i.mbed_die) refers to gpio.o(i.gpio_init_out) for gpio_init_out
    board.o(i.mbed_die) refers to board.o(i.gpio_write) for gpio_write
    board.o(i.mbed_die) refers to wait_api.o(i.wait_ms) for wait_ms
    malloc.o(.text) refers (Special) to hguard.o(.text) for __heap$guard
    malloc.o(.text) refers (Special) to init_alloc.o(.text) for _init_alloc
    malloc.o(.text) refers to rt_heap_descriptor.o(.text) for __rt_heap_descriptor
    malloc.o(.text) refers to heapstubs.o(.text) for __Heap_Alloc
    free.o(.text) refers (Special) to hguard.o(.text) for __heap$guard
    free.o(.text) refers to rt_heap_descriptor.o(.text) for __rt_heap_descriptor
    free.o(.text) refers to heapstubs.o(.text) for __Heap_Free
    h1_alloc.o(.text) refers (Special) to h1_init.o(.text) for __Heap_Initialize
    h1_alloc.o(.text) refers to rt_heap_descriptor.o(.text) for __rt_heap_descriptor
    h1_alloc.o(.text) refers to init_alloc.o(.text) for __Heap_Full
    h1_free.o(.text) refers to rt_heap_descriptor.o(.text) for __rt_heap_descriptor
    h1_alloc_mt.o(.text) refers (Special) to h1_init.o(.text) for __Heap_Initialize
    h1_alloc_mt.o(.text) refers to init_alloc.o(.text) for __Heap_Full
    h1_alloc_mt.o(.text) refers to rt_heap_descriptor.o(.text) for __rt_heap_descriptor
    h1_free_mt.o(.text) refers to rt_heap_descriptor.o(.text) for __rt_heap_descriptor
    heap2.o(i._FDIterate) refers to heap2.o(.conststring) for .conststring
    heap2.o(i.___Heap_ProvideMemory$realtime) refers to fdtree.o(i._FDTree_Delete) for _FDTree_Delete
    heap2.o(i.___Heap_ProvideMemory$realtime) refers to fdtree.o(i._FDTree_Insert) for _FDTree_Insert
    heap2.o(i.___Heap_Stats$realtime) refers to heap2.o(i._Heap2_StatsIterate) for _Heap2_StatsIterate
    heap2.o(i.___Heap_Valid$realtime) refers to heap2.o(i._FDIterate) for _FDIterate
    heap2.o(i.___Heap_Valid$realtime) refers to heap2.o(.conststring) for .conststring
    heap2.o(i._free$realtime) refers to rt_heap_descriptor.o(.text) for __rt_heap_descriptor
    heap2.o(i._free$realtime) refers to fdtree.o(i._FDTree_Delete) for _FDTree_Delete
    heap2.o(i._free$realtime) refers to fdtree.o(i._FDTree_Insert) for _FDTree_Insert
    heap2.o(i._malloc$realtime) refers to rt_heap_descriptor.o(.text) for __rt_heap_descriptor
    heap2.o(i._malloc$realtime) refers to fdtree.o(i._FDTree_FindFirst) for _FDTree_FindFirst
    heap2.o(i._malloc$realtime) refers to init_alloc.o(.text) for __Heap_Full
    heap2.o(i._malloc$realtime) refers to fdtree.o(i._FDTree_RemoveNode) for _FDTree_RemoveNode
    heap2.o(i._malloc$realtime) refers to fdtree.o(i._FDTree_Insert) for _FDTree_Insert
    heap2.o(i._posix_memalign$realtime) refers to rt_heap_descriptor.o(.text) for __rt_heap_descriptor
    heap2.o(i._posix_memalign$realtime) refers to fdtree.o(i._FDTree_FindFirst) for _FDTree_FindFirst
    heap2.o(i._posix_memalign$realtime) refers to init_alloc.o(.text) for __Heap_Full
    heap2.o(i._posix_memalign$realtime) refers to fdtree.o(i._FDTree_RemoveNode) for _FDTree_RemoveNode
    heap2.o(i._posix_memalign$realtime) refers to fdtree.o(i._FDTree_Insert) for _FDTree_Insert
    heap2.o(i._realloc$realtime) refers to rt_heap_descriptor.o(.text) for __rt_heap_descriptor
    heap2.o(i._realloc$realtime) refers to fdtree.o(i._FDTree_Insert) for _FDTree_Insert
    heap2.o(i._realloc$realtime) refers to h1_free.o(.text) for free
    heap2.o(i._realloc$realtime) refers to h1_alloc.o(.text) for malloc
    heap2.o(i._realloc$realtime) refers to fdtree.o(i._FDTree_Delete) for _FDTree_Delete
    heap2.o(i._realloc$realtime) refers to rt_memcpy_w.o(.text) for __aeabi_memcpy4
    heap2mt.o(i._FDIterate) refers to heap2mt.o(.conststring) for .conststring
    heap2mt.o(i.___Heap_Initialize$realtime$concurrent) refers to mutex_dummy.o(.text) for _mutex_initialize
    heap2mt.o(i.___Heap_ProvideMemory$realtime$concurrent) refers to fdtree.o(i._FDTree_Delete) for _FDTree_Delete
    heap2mt.o(i.___Heap_ProvideMemory$realtime$concurrent) refers to fdtree.o(i._FDTree_Insert) for _FDTree_Insert
    heap2mt.o(i.___Heap_Stats$realtime$concurrent) refers to heap2mt.o(i._Heap2_StatsIterate) for _Heap2_StatsIterate
    heap2mt.o(i.___Heap_Valid$realtime$concurrent) refers to heap2mt.o(i._FDIterate) for _FDIterate
    heap2mt.o(i.___Heap_Valid$realtime$concurrent) refers to heap2mt.o(.conststring) for .conststring
    heap2mt.o(i._free$realtime$concurrent) refers to rt_heap_descriptor.o(.text) for __rt_heap_descriptor
    heap2mt.o(i._free$realtime$concurrent) refers to fdtree.o(i._FDTree_Delete) for _FDTree_Delete
    heap2mt.o(i._free$realtime$concurrent) refers to fdtree.o(i._FDTree_Insert) for _FDTree_Insert
    heap2mt.o(i._malloc$realtime$concurrent) refers to rt_heap_descriptor.o(.text) for __rt_heap_descriptor
    heap2mt.o(i._malloc$realtime$concurrent) refers to fdtree.o(i._FDTree_FindFirst) for _FDTree_FindFirst
    heap2mt.o(i._malloc$realtime$concurrent) refers to init_alloc.o(.text) for __Heap_Full
    heap2mt.o(i._malloc$realtime$concurrent) refers to fdtree.o(i._FDTree_RemoveNode) for _FDTree_RemoveNode
    heap2mt.o(i._malloc$realtime$concurrent) refers to fdtree.o(i._FDTree_Insert) for _FDTree_Insert
    heap2mt.o(i._posix_memalign$realtime$concurrent) refers to rt_heap_descriptor.o(.text) for __rt_heap_descriptor
    heap2mt.o(i._posix_memalign$realtime$concurrent) refers to fdtree.o(i._FDTree_FindFirst) for _FDTree_FindFirst
    heap2mt.o(i._posix_memalign$realtime$concurrent) refers to init_alloc.o(.text) for __Heap_Full
    heap2mt.o(i._posix_memalign$realtime$concurrent) refers to fdtree.o(i._FDTree_RemoveNode) for _FDTree_RemoveNode
    heap2mt.o(i._posix_memalign$realtime$concurrent) refers to fdtree.o(i._FDTree_Insert) for _FDTree_Insert
    heap2mt.o(i._realloc$realtime$concurrent) refers to rt_heap_descriptor.o(.text) for __rt_heap_descriptor
    heap2mt.o(i._realloc$realtime$concurrent) refers to fdtree.o(i._FDTree_Insert) for _FDTree_Insert
    heap2mt.o(i._realloc$realtime$concurrent) refers to h1_free.o(.text) for free
    heap2mt.o(i._realloc$realtime$concurrent) refers to h1_alloc.o(.text) for malloc
    heap2mt.o(i._realloc$realtime$concurrent) refers to fdtree.o(i._FDTree_Delete) for _FDTree_Delete
    heap2mt.o(i._realloc$realtime$concurrent) refers to rt_memcpy_w.o(.text) for __aeabi_memcpy4
    vfprintf.o(.text) refers (Special) to _printf_a.o(.ARM.Collect$$_printf_percent$$00000006) for _printf_a
    vfprintf.o(.text) refers (Special) to _printf_c.o(.ARM.Collect$$_printf_percent$$00000013) for _printf_c
    vfprintf.o(.text) refers (Special) to _printf_charcount.o(.text) for _printf_charcount
    vfprintf.o(.text) refers (Special) to _printf_d.o(.ARM.Collect$$_printf_percent$$00000009) for _printf_d
    vfprintf.o(.text) refers (Special) to _printf_e.o(.ARM.Collect$$_printf_percent$$00000004) for _printf_e
    vfprintf.o(.text) refers (Special) to _printf_f.o(.ARM.Collect$$_printf_percent$$00000003) for _printf_f
    vfprintf.o(.text) refers (Special) to printf1.o(x$fpl$printf1) for _printf_fp_dec
    vfprintf.o(.text) refers (Special) to printf2.o(x$fpl$printf2) for _printf_fp_hex
    vfprintf.o(.text) refers (Special) to _printf_g.o(.ARM.Collect$$_printf_percent$$00000005) for _printf_g
    vfprintf.o(.text) refers (Special) to _printf_i.o(.ARM.Collect$$_printf_percent$$00000008) for _printf_i
    vfprintf.o(.text) refers (Special) to _printf_dec.o(.text) for _printf_int_dec
    vfprintf.o(.text) refers (Special) to _printf_l.o(.ARM.Collect$$_printf_percent$$00000012) for _printf_l
    vfprintf.o(.text) refers (Special) to _printf_lc.o(.ARM.Collect$$_printf_percent$$00000015) for _printf_lc
    vfprintf.o(.text) refers (Special) to _printf_ll.o(.ARM.Collect$$_printf_percent$$00000007) for _printf_ll
    vfprintf.o(.text) refers (Special) to _printf_lld.o(.ARM.Collect$$_printf_percent$$0000000E) for _printf_lld
    vfprintf.o(.text) refers (Special) to _printf_lli.o(.ARM.Collect$$_printf_percent$$0000000D) for _printf_lli
    vfprintf.o(.text) refers (Special) to _printf_llo.o(.ARM.Collect$$_printf_percent$$00000010) for _printf_llo
    vfprintf.o(.text) refers (Special) to _printf_llu.o(.ARM.Collect$$_printf_percent$$0000000F) for _printf_llu
    vfprintf.o(.text) refers (Special) to _printf_llx.o(.ARM.Collect$$_printf_percent$$00000011) for _printf_llx
    vfprintf.o(.text) refers (Special) to _printf_longlong_dec.o(.text) for _printf_longlong_dec
    vfprintf.o(.text) refers (Special) to _printf_hex_int_ll_ptr.o(.text) for _printf_longlong_hex
    vfprintf.o(.text) refers (Special) to _printf_oct_int_ll.o(.text) for _printf_longlong_oct
    vfprintf.o(.text) refers (Special) to _printf_ls.o(.ARM.Collect$$_printf_percent$$00000016) for _printf_ls
    vfprintf.o(.text) refers (Special) to _printf_n.o(.ARM.Collect$$_printf_percent$$00000001) for _printf_n
    vfprintf.o(.text) refers (Special) to _printf_o.o(.ARM.Collect$$_printf_percent$$0000000B) for _printf_o
    vfprintf.o(.text) refers (Special) to _printf_p.o(.ARM.Collect$$_printf_percent$$00000002) for _printf_p
    vfprintf.o(.text) refers (Special) to _printf_percent.o(.ARM.Collect$$_printf_percent$$00000000) for _printf_percent
    vfprintf.o(.text) refers (Special) to _printf_pad.o(.text) for _printf_post_padding
    vfprintf.o(.text) refers (Special) to _printf_s.o(.ARM.Collect$$_printf_percent$$00000014) for _printf_s
    vfprintf.o(.text) refers (Special) to _printf_str.o(.text) for _printf_str
    vfprintf.o(.text) refers (Special) to _printf_truncate.o(.text) for _printf_truncate_signed
    vfprintf.o(.text) refers (Special) to _printf_u.o(.ARM.Collect$$_printf_percent$$0000000A) for _printf_u
    vfprintf.o(.text) refers (Special) to _printf_wctomb.o(.text) for _printf_wctomb
    vfprintf.o(.text) refers (Special) to _printf_x.o(.ARM.Collect$$_printf_percent$$0000000C) for _printf_x
    vfprintf.o(.text) refers to _printf_char_file.o(.text) for _printf_char_file
    c89vfprintf.o(.text) refers (Special) to _printf_a.o(.ARM.Collect$$_printf_percent$$00000006) for _printf_a
    c89vfprintf.o(.text) refers (Special) to _printf_c.o(.ARM.Collect$$_printf_percent$$00000013) for _printf_c
    c89vfprintf.o(.text) refers (Special) to _printf_charcount.o(.text) for _printf_charcount
    c89vfprintf.o(.text) refers (Special) to _printf_d.o(.ARM.Collect$$_printf_percent$$00000009) for _printf_d
    c89vfprintf.o(.text) refers (Special) to _printf_e.o(.ARM.Collect$$_printf_percent$$00000004) for _printf_e
    c89vfprintf.o(.text) refers (Special) to _printf_f.o(.ARM.Collect$$_printf_percent$$00000003) for _printf_f
    c89vfprintf.o(.text) refers (Special) to printf1.o(x$fpl$printf1) for _printf_fp_dec
    c89vfprintf.o(.text) refers (Special) to _printf_g.o(.ARM.Collect$$_printf_percent$$00000005) for _printf_g
    c89vfprintf.o(.text) refers (Special) to _printf_i.o(.ARM.Collect$$_printf_percent$$00000008) for _printf_i
    c89vfprintf.o(.text) refers (Special) to _printf_dec.o(.text) for _printf_int_dec
    c89vfprintf.o(.text) refers (Special) to _printf_l.o(.ARM.Collect$$_printf_percent$$00000012) for _printf_l
    c89vfprintf.o(.text) refers (Special) to _printf_lc.o(.ARM.Collect$$_printf_percent$$00000015) for _printf_lc
    c89vfprintf.o(.text) refers (Special) to _printf_ll.o(.ARM.Collect$$_printf_percent$$00000007) for _printf_ll
    c89vfprintf.o(.text) refers (Special) to _printf_lld.o(.ARM.Collect$$_printf_percent$$0000000E) for _printf_lld
    c89vfprintf.o(.text) refers (Special) to _printf_lli.o(.ARM.Collect$$_printf_percent$$0000000D) for _printf_lli
    c89vfprintf.o(.text) refers (Special) to _printf_llo.o(.ARM.Collect$$_printf_percent$$00000010) for _printf_llo
    c89vfprintf.o(.text) refers (Special) to _printf_llu.o(.ARM.Collect$$_printf_percent$$0000000F) for _printf_llu
    c89vfprintf.o(.text) refers (Special) to _printf_llx.o(.ARM.Collect$$_printf_percent$$00000011) for _printf_llx
    c89vfprintf.o(.text) refers (Special) to _printf_longlong_dec.o(.text) for _printf_longlong_dec
    c89vfprintf.o(.text) refers (Special) to _printf_hex_int_ll_ptr.o(.text) for _printf_longlong_hex
    c89vfprintf.o(.text) refers (Special) to _printf_oct_int_ll.o(.text) for _printf_longlong_oct
    c89vfprintf.o(.text) refers (Special) to _printf_ls.o(.ARM.Collect$$_printf_percent$$00000016) for _printf_ls
    c89vfprintf.o(.text) refers (Special) to _printf_n.o(.ARM.Collect$$_printf_percent$$00000001) for _printf_n
    c89vfprintf.o(.text) refers (Special) to _printf_o.o(.ARM.Collect$$_printf_percent$$0000000B) for _printf_o
    c89vfprintf.o(.text) refers (Special) to _printf_p.o(.ARM.Collect$$_printf_percent$$00000002) for _printf_p
    c89vfprintf.o(.text) refers (Special) to _printf_percent.o(.ARM.Collect$$_printf_percent$$00000000) for _printf_percent
    c89vfprintf.o(.text) refers (Special) to _printf_pad.o(.text) for _printf_post_padding
    c89vfprintf.o(.text) refers (Special) to _printf_s.o(.ARM.Collect$$_printf_percent$$00000014) for _printf_s
    c89vfprintf.o(.text) refers (Special) to _printf_str.o(.text) for _printf_str
    c89vfprintf.o(.text) refers (Special) to _printf_truncate.o(.text) for _printf_truncate_signed
    c89vfprintf.o(.text) refers (Special) to _printf_u.o(.ARM.Collect$$_printf_percent$$0000000A) for _printf_u
    c89vfprintf.o(.text) refers (Special) to _printf_wctomb.o(.text) for _printf_wctomb
    c89vfprintf.o(.text) refers (Special) to _printf_x.o(.ARM.Collect$$_printf_percent$$0000000C) for _printf_x
    c89vfprintf.o(.text) refers to _printf_char_file.o(.text) for _printf_char_file
    __2sprintf.o(.text) refers to _printf_char_common.o(.text) for _printf_char_common
    __2sprintf.o(.text) refers to _sputc.o(.text) for _sputc
    noretval__2sprintf.o(.text) refers to _printf_char_common.o(.text) for _printf_char_common
    noretval__2sprintf.o(.text) refers to _sputc.o(.text) for _sputc
    __printf.o(.text) refers to _printf_percent.o(.ARM.Collect$$_printf_percent$$00000000) for _printf_percent
    _printf_hex_ll.o(.text) refers to _printf_intcommon.o(.text) for _printf_int_common
    _printf_hex_ll.o(.text) refers to _printf_hex_ll.o(.constdata) for .constdata
    _printf_hex_int.o(.text) refers (Weak) to _printf_truncate.o(.text) for _printf_truncate_unsigned
    _printf_hex_int.o(.text) refers to _printf_intcommon.o(.text) for _printf_int_common
    _printf_hex_int.o(.text) refers to _printf_hex_int.o(.constdata) for .constdata
    _printf_hex_int_ll.o(.text) refers to _printf_intcommon.o(.text) for _printf_int_common
    _printf_hex_int_ll.o(.text) refers (Weak) to _printf_truncate.o(.text) for _printf_truncate_unsigned
    _printf_hex_int_ll.o(.text) refers to _printf_hex_int_ll.o(.constdata) for .constdata
    _printf_hex_ptr.o(.text) refers to _printf_intcommon.o(.text) for _printf_int_common
    _printf_hex_ptr.o(.text) refers to _printf_hex_ptr.o(.constdata) for .constdata
    _printf_hex_int_ptr.o(.text) refers to _printf_intcommon.o(.text) for _printf_int_common
    _printf_hex_int_ptr.o(.text) refers (Weak) to _printf_truncate.o(.text) for _printf_truncate_unsigned
    _printf_hex_int_ptr.o(.text) refers to _printf_hex_int_ptr.o(.constdata) for .constdata
    _printf_hex_ll_ptr.o(.text) refers to _printf_intcommon.o(.text) for _printf_int_common
    _printf_hex_ll_ptr.o(.text) refers to _printf_hex_ll_ptr.o(.constdata) for .constdata
    _printf_hex_int_ll_ptr.o(.text) refers to _printf_intcommon.o(.text) for _printf_int_common
    _printf_hex_int_ll_ptr.o(.text) refers (Weak) to _printf_truncate.o(.text) for _printf_truncate_unsigned
    _printf_hex_int_ll_ptr.o(.text) refers to _printf_hex_int_ll_ptr.o(.constdata) for .constdata
    __printf_flags.o(.text) refers to _printf_percent.o(.ARM.Collect$$_printf_percent$$00000000) for _printf_percent
    __printf_flags.o(.text) refers to __printf_flags.o(.constdata) for .constdata
    __printf_ss.o(.text) refers to _printf_percent.o(.ARM.Collect$$_printf_percent$$00000000) for _printf_percent
    __printf_flags_ss.o(.text) refers to _printf_percent.o(.ARM.Collect$$_printf_percent$$00000000) for _printf_percent
    __printf_flags_ss.o(.text) refers to __printf_flags_ss.o(.constdata) for .constdata
    __printf_wp.o(.text) refers to __printf_wp.o(i._is_digit) for _is_digit
    __printf_wp.o(.text) refers to _printf_percent.o(.ARM.Collect$$_printf_percent$$00000000) for _printf_percent
    __printf_flags_wp.o(.text) refers to __printf_wp.o(i._is_digit) for _is_digit
    __printf_flags_wp.o(.text) refers to _printf_percent.o(.ARM.Collect$$_printf_percent$$00000000) for _printf_percent
    __printf_flags_wp.o(.text) refers to __printf_flags_wp.o(.constdata) for .constdata
    __printf_ss_wp.o(.text) refers to __printf_wp.o(i._is_digit) for _is_digit
    __printf_ss_wp.o(.text) refers to _printf_percent.o(.ARM.Collect$$_printf_percent$$00000000) for _printf_percent
    __printf_flags_ss_wp.o(.text) refers to __printf_wp.o(i._is_digit) for _is_digit
    __printf_flags_ss_wp.o(.text) refers to _printf_percent.o(.ARM.Collect$$_printf_percent$$00000000) for _printf_percent
    __printf_flags_ss_wp.o(.text) refers to __printf_flags_ss_wp.o(.constdata) for .constdata
    _printf_p.o(.ARM.Collect$$_printf_percent$$00000002) refers (Weak) to _printf_hex_int_ll_ptr.o(.text) for _printf_hex_ptr
    _printf_percent.o(.ARM.Collect$$_printf_percent$$00000000) refers (Special) to _printf_percent_end.o(.ARM.Collect$$_printf_percent$$00000017) for _printf_percent_end
    vfscanf.o(.text) refers (Special) to _scanf_int.o(.text) for _scanf_int
    vfscanf.o(.text) refers (Special) to _scanf_longlong.o(.text) for _scanf_longlong
    vfscanf.o(.text) refers (Special) to _scanf_mbtowc.o(.text) for _scanf_mbtowc
    vfscanf.o(.text) refers (Special) to scanf1.o(x$fpl$scanf1) for _scanf_real
    vfscanf.o(.text) refers (Special) to _scanf_str.o(.text) for _scanf_string
    vfscanf.o(.text) refers (Special) to _scanf_wctomb.o(.text) for _scanf_wctomb
    vfscanf.o(.text) refers (Special) to _scanf_wstr.o(.text) for _scanf_wstring
    vfscanf.o(.text) refers to scanf_char_file.o(.text) for __vfscanf_char_file
    __0sscanf.o(.text) refers to scanf_char.o(.text) for __vfscanf_char
    __0sscanf.o(.text) refers to _sgetc.o(.text) for _sgetc
    _scanf_int.o(.text) refers to _chval.o(.text) for _chval
    fflush.o(.text) refers to stdio.o(.text) for _fflush
    fflush.o(.text) refers to fseek.o(.text) for _fseek
    fflush.o(.text) refers to stdio_streams.o(.bss) for __stdin
    fgetc.o(i.fgetc) refers to filbuf.o(.text) for __filbuf_byte
    fgets.o(.text) refers to fgetc.o(i.fgetc) for fgetc
    fgets.o(.text) refers to ferror.o(.text) for ferror
    fputc.o(i.fputc) refers to flsbuf.o(.text) for __flsbuf_byte
    fputs.o(.text) refers to fputc.o(i.fputc) for fputc
    fopen.o(.text) refers to fclose.o(.text) for _fclose_internal
    fopen.o(.text) refers to retarget.o(i._sys_open) for _sys_open
    fopen.o(.text) refers to fseek.o(.text) for _fseek
    fopen.o(.text) refers to h1_alloc.o(.text) for malloc
    fopen.o(.text) refers to rt_memclr_w.o(.text) for __aeabi_memclr4
    fopen.o(.text) refers to stdio_streams.o(.bss) for __stdin
    setbuf.o(.text) refers to setvbuf.o(.text) for setvbuf
    stdio_streams.o(.bss) refers (Special) to initio.o(.text) for _initio
    stdio_streams.o(.bss) refers (Special) to initio.o(.text) for _initio
    stdio_streams.o(.bss) refers (Special) to initio.o(.text) for _initio
    stdio_streams.o(.data) refers (Special) to initio.o(.text) for _initio
    stdio_streams.o(.data) refers (Special) to initio.o(.text) for _initio
    stdio_streams.o(.data) refers (Special) to initio.o(.text) for _initio
    fclose.o(.text) refers to stdio.o(.text) for _fflush
    fclose.o(.text) refers to retarget.o(i._sys_close) for _sys_close
    fclose.o(.text) refers to h1_free.o(.text) for free
    fclose.o(.text) refers to rt_memclr_w.o(.text) for __aeabi_memclr4
    fclose_locked.o(.text) refers to fclose.o(.text) for _fclose_internal
    fclose_locked.o(.text) refers to streamlock.o(.data) for _stream_list_lock
    fflush_locked.o(.text) refers to stdio.o(.text) for _fflush
    fflush_locked.o(.text) refers to fseek.o(.text) for _fseek
    fflush_locked.o(.text) refers to fflush.o(.text) for _do_fflush
    fflush_locked.o(.text) refers to streamlock.o(.data) for _stream_list_lock
    fflush_locked.o(.text) refers to stdio_streams.o(.bss) for __stdin
    fopen_locked.o(.text) refers to fclose.o(.text) for _fclose_internal
    fopen_locked.o(.text) refers to retarget.o(i._sys_open) for _sys_open
    fopen_locked.o(.text) refers to fseek.o(.text) for _fseek
    fopen_locked.o(.text) refers to h1_alloc.o(.text) for malloc
    fopen_locked.o(.text) refers to rt_memclr_w.o(.text) for __aeabi_memclr4
    fopen_locked.o(.text) refers to streamlock.o(.data) for _stream_list_lock
    fopen_locked.o(.text) refers to stdio_streams.o(.bss) for __stdin
    assert.o(.text) refers to assert_stdio.o(.text) for __assert_puts
    assert.o(.text) refers to abort.o(.text) for abort
    rt_memcpy_v6.o(.text) refers to rt_memcpy_w.o(.text) for __aeabi_memcpy4
    rt_memclr.o(.text) refers to rt_memclr_w.o(.text) for _memset_w
    strncpy.o(.text) refers to rt_memclr.o(.text) for __aeabi_memclr
    __main.o(!!!main) refers to __rtentry.o(.ARM.Collect$$rtentry$$00000000) for __rt_entry
    init_aeabi.o(.emb_text) refers (Special) to libinit2.o(.ARM.Collect$$libinit$$00000031) for __rt_lib_init_cpp_2
    init_aeabi.o(.init_array) refers (Special) to libinit2.o(.ARM.Collect$$libinit$$00000031) for __rt_lib_init_cpp_2
    init_aeabi.o(.init_array) refers to init_aeabi.o(.text) for __cpp_initialize__aeabi_
    init_aeabi.o(.dummy_text) refers (Special) to libinit2.o(.ARM.Collect$$libinit$$00000031) for __rt_lib_init_cpp_2
    init_aeabi.o(.text) refers (Special) to libinit2.o(.ARM.Collect$$libinit$$00000031) for __rt_lib_init_cpp_2
    init_aeabi.o(.ARM.exidx) refers (Special) to libinit2.o(.ARM.Collect$$libinit$$00000031) for __rt_lib_init_cpp_2
    init_aeabi.o(.ARM.exidx) refers to init_aeabi.o(.text) for .text
    delete.o(i._ZdlPv) refers to h1_free.o(.text) for free
    delete.o(.ARM.exidx) refers to delete.o(i._ZdlPv) for i._ZdlPv
    new.o(i._Znwj) refers to rt_new_handler_addr.o(.text) for __rt_new_handler_addr
    new.o(i._Znwj) refers to h1_alloc.o(.text) for malloc
    new.o(i._Znwj) refers to arm_newhandler_noexceptions.o(.text) for __default_new_handler()
    new.o(.ARM.exidx) refers to new.o(i._Znwj) for i._Znwj
    new.o(.ARM.exidx) refers to unwind_pr0.o(.text) for __aeabi_unwind_cpp_pr0
    new.o(.ARM.exidx) refers to new.o(.ARM.extab) for .extab._Znwj
    new.o(.ARM.extab) refers to arm_callunex_noexceptions.o(.text) for __cxa_call_unexpected
    new.o(.ARM.extab) refers to bad_alloc_dtor.o(.constdata__ZTISt9bad_alloc) for typeinfo for std::bad_alloc
    pure_virt.o(i.__cxa_pure_virtual) refers to defsig_pvfn_outer.o(.text) for __rt_SIGPVFN
    pure_virt.o(.ARM.exidx) refers to pure_virt.o(i.__cxa_pure_virtual) for i.__cxa_pure_virtual
    cxa_guard_acquire.o(.ARM.exidx) refers to cxa_guard_acquire.o(i.__cxa_guard_acquire) for i.__cxa_guard_acquire
    cxa_guard_release.o(.ARM.exidx) refers to cxa_guard_release.o(i.__cxa_guard_release) for i.__cxa_guard_release
    lib_rtti_impl.o(i._ZN10__cxxabiv116__enum_type_infoD0Ev) refers to lib_rtti_impl.o(i._ZN10__cxxabiv116__enum_type_infoD1Ev) for __cxxabiv1::__enum_type_info::~__enum_type_info()
    lib_rtti_impl.o(i._ZN10__cxxabiv117__array_type_infoD0Ev) refers to lib_rtti_impl.o(i._ZN10__cxxabiv117__array_type_infoD1Ev) for __cxxabiv1::__array_type_info::~__array_type_info()
    lib_rtti_impl.o(i._ZN10__cxxabiv117__class_type_infoD0Ev) refers to lib_rtti_impl.o(i._ZN10__cxxabiv117__class_type_infoD1Ev) for __cxxabiv1::__class_type_info::~__class_type_info()
    lib_rtti_impl.o(i._ZN10__cxxabiv117__pbase_type_infoD0Ev) refers to lib_rtti_impl.o(i._ZN10__cxxabiv117__pbase_type_infoD1Ev) for __cxxabiv1::__pbase_type_info::~__pbase_type_info()
    lib_rtti_impl.o(i._ZN10__cxxabiv119__pointer_type_infoD0Ev) refers to lib_rtti_impl.o(i._ZN10__cxxabiv119__pointer_type_infoD1Ev) for __cxxabiv1::__pointer_type_info::~__pointer_type_info()
    lib_rtti_impl.o(i._ZN10__cxxabiv119__pointer_type_infoD1Ev) refers to lib_rtti_impl.o(i._ZN10__cxxabiv117__pbase_type_infoD1Ev) for __cxxabiv1::__pbase_type_info::~__pbase_type_info()
    lib_rtti_impl.o(i._ZN10__cxxabiv120__function_type_infoD0Ev) refers to lib_rtti_impl.o(i._ZN10__cxxabiv120__function_type_infoD1Ev) for __cxxabiv1::__function_type_info::~__function_type_info()
    lib_rtti_impl.o(i._ZN10__cxxabiv120__si_class_type_infoD0Ev) refers to lib_rtti_impl.o(i._ZN10__cxxabiv120__si_class_type_infoD1Ev) for __cxxabiv1::__si_class_type_info::~__si_class_type_info()
    lib_rtti_impl.o(i._ZN10__cxxabiv120__si_class_type_infoD1Ev) refers to lib_rtti_impl.o(i._ZN10__cxxabiv117__class_type_infoD1Ev) for __cxxabiv1::__class_type_info::~__class_type_info()
    lib_rtti_impl.o(i._ZN10__cxxabiv121__vmi_class_type_infoD0Ev) refers to lib_rtti_impl.o(i._ZN10__cxxabiv121__vmi_class_type_infoD1Ev) for __cxxabiv1::__vmi_class_type_info::~__vmi_class_type_info()
    lib_rtti_impl.o(i._ZN10__cxxabiv121__vmi_class_type_infoD1Ev) refers to lib_rtti_impl.o(i._ZN10__cxxabiv117__class_type_infoD1Ev) for __cxxabiv1::__class_type_info::~__class_type_info()
    lib_rtti_impl.o(i._ZN10__cxxabiv123__fundamental_type_infoD0Ev) refers to lib_rtti_impl.o(i._ZN10__cxxabiv123__fundamental_type_infoD1Ev) for __cxxabiv1::__fundamental_type_info::~__fundamental_type_info()
    lib_rtti_impl.o(i._ZN10__cxxabiv129__pointer_to_member_type_infoD0Ev) refers to lib_rtti_impl.o(i._ZN10__cxxabiv129__pointer_to_member_type_infoD1Ev) for __cxxabiv1::__pointer_to_member_type_info::~__pointer_to_member_type_info()
    lib_rtti_impl.o(i._ZN10__cxxabiv129__pointer_to_member_type_infoD1Ev) refers to lib_rtti_impl.o(i._ZN10__cxxabiv117__pbase_type_infoD1Ev) for __cxxabiv1::__pbase_type_info::~__pbase_type_info()
    lib_rtti_impl.o(.ARM.exidx) refers to lib_rtti_impl.o(i._ZN10__cxxabiv123__fundamental_type_infoD1Ev) for i._ZN10__cxxabiv123__fundamental_type_infoD1Ev
    lib_rtti_impl.o(.ARM.exidx) refers to lib_rtti_impl.o(i._ZN10__cxxabiv123__fundamental_type_infoD0Ev) for i._ZN10__cxxabiv123__fundamental_type_infoD0Ev
    lib_rtti_impl.o(.ARM.exidx) refers to lib_rtti_impl.o(i._ZN10__cxxabiv117__array_type_infoD1Ev) for i._ZN10__cxxabiv117__array_type_infoD1Ev
    lib_rtti_impl.o(.ARM.exidx) refers to lib_rtti_impl.o(i._ZN10__cxxabiv117__array_type_infoD0Ev) for i._ZN10__cxxabiv117__array_type_infoD0Ev
    lib_rtti_impl.o(.ARM.exidx) refers to lib_rtti_impl.o(i._ZN10__cxxabiv120__function_type_infoD1Ev) for i._ZN10__cxxabiv120__function_type_infoD1Ev
    lib_rtti_impl.o(.ARM.exidx) refers to lib_rtti_impl.o(i._ZN10__cxxabiv120__function_type_infoD0Ev) for i._ZN10__cxxabiv120__function_type_infoD0Ev
    lib_rtti_impl.o(.ARM.exidx) refers to lib_rtti_impl.o(i._ZN10__cxxabiv116__enum_type_infoD1Ev) for i._ZN10__cxxabiv116__enum_type_infoD1Ev
    lib_rtti_impl.o(.ARM.exidx) refers to lib_rtti_impl.o(i._ZN10__cxxabiv116__enum_type_infoD0Ev) for i._ZN10__cxxabiv116__enum_type_infoD0Ev
    lib_rtti_impl.o(.ARM.exidx) refers to lib_rtti_impl.o(i._ZN10__cxxabiv117__class_type_infoD1Ev) for i._ZN10__cxxabiv117__class_type_infoD1Ev
    lib_rtti_impl.o(.ARM.exidx) refers to lib_rtti_impl.o(i._ZN10__cxxabiv117__class_type_infoD0Ev) for i._ZN10__cxxabiv117__class_type_infoD0Ev
    lib_rtti_impl.o(.ARM.exidx) refers to lib_rtti_impl.o(i._ZN10__cxxabiv120__si_class_type_infoD1Ev) for i._ZN10__cxxabiv120__si_class_type_infoD1Ev
    lib_rtti_impl.o(.ARM.exidx) refers to lib_rtti_impl.o(i._ZN10__cxxabiv120__si_class_type_infoD0Ev) for i._ZN10__cxxabiv120__si_class_type_infoD0Ev
    lib_rtti_impl.o(.ARM.exidx) refers to lib_rtti_impl.o(i._ZN10__cxxabiv121__vmi_class_type_infoD1Ev) for i._ZN10__cxxabiv121__vmi_class_type_infoD1Ev
    lib_rtti_impl.o(.ARM.exidx) refers to lib_rtti_impl.o(i._ZN10__cxxabiv121__vmi_class_type_infoD0Ev) for i._ZN10__cxxabiv121__vmi_class_type_infoD0Ev
    lib_rtti_impl.o(.ARM.exidx) refers to lib_rtti_impl.o(i._ZN10__cxxabiv117__pbase_type_infoD1Ev) for i._ZN10__cxxabiv117__pbase_type_infoD1Ev
    lib_rtti_impl.o(.ARM.exidx) refers to lib_rtti_impl.o(i._ZN10__cxxabiv117__pbase_type_infoD0Ev) for i._ZN10__cxxabiv117__pbase_type_infoD0Ev
    lib_rtti_impl.o(.ARM.exidx) refers to lib_rtti_impl.o(i._ZN10__cxxabiv119__pointer_type_infoD1Ev) for i._ZN10__cxxabiv119__pointer_type_infoD1Ev
    lib_rtti_impl.o(.ARM.exidx) refers to lib_rtti_impl.o(i._ZN10__cxxabiv119__pointer_type_infoD0Ev) for i._ZN10__cxxabiv119__pointer_type_infoD0Ev
    lib_rtti_impl.o(.ARM.exidx) refers to lib_rtti_impl.o(i._ZN10__cxxabiv129__pointer_to_member_type_infoD1Ev) for i._ZN10__cxxabiv129__pointer_to_member_type_infoD1Ev
    lib_rtti_impl.o(.ARM.exidx) refers to lib_rtti_impl.o(i._ZN10__cxxabiv129__pointer_to_member_type_infoD0Ev) for i._ZN10__cxxabiv129__pointer_to_member_type_infoD0Ev
    aeabi_vec_ctor_nocookie_nodtor.o(.ARM.exidx) refers to aeabi_vec_ctor_nocookie_nodtor.o(i.__aeabi_vec_ctor_nocookie_nodtor) for i.__aeabi_vec_ctor_nocookie_nodtor
    aeabi_vec_ctor_nocookie_nodtor.o(.ARM.exidx) refers to unwind_pr0.o(.text) for __aeabi_unwind_cpp_pr0
    basic.o(x$fpl$basic) refers (Special) to usenofp.o(x$fpl$usenofp) for __I$use$fp
    d2f.o(x$fpl$d2f) refers (Special) to usenofp.o(x$fpl$usenofp) for __I$use$fp
    d2f.o(x$fpl$d2f) refers to fretinf.o(x$fpl$fretinf) for __fpl_fretinf
    d2f.o(x$fpl$d2f) refers to dnaninf.o(x$fpl$dnaninf) for __fpl_dnaninf
    daddsub_clz.o(x$fpl$dadd) refers (Special) to usenofp.o(x$fpl$usenofp) for __I$use$fp
    daddsub_clz.o(x$fpl$dadd) refers to daddsub_clz.o(x$fpl$dsub) for _dsub1
    daddsub_clz.o(x$fpl$dadd) refers to dretinf.o(x$fpl$dretinf) for __fpl_dretinf
    daddsub_clz.o(x$fpl$dadd) refers to dnaninf.o(x$fpl$dnaninf) for __fpl_dnaninf
    daddsub_clz.o(x$fpl$drsb) refers (Special) to usenofp.o(x$fpl$usenofp) for __I$use$fp
    daddsub_clz.o(x$fpl$drsb) refers to daddsub_clz.o(x$fpl$dadd) for _dadd1
    daddsub_clz.o(x$fpl$drsb) refers to daddsub_clz.o(x$fpl$dsub) for _dsub1
    daddsub_clz.o(x$fpl$dsub) refers (Special) to usenofp.o(x$fpl$usenofp) for __I$use$fp
    daddsub_clz.o(x$fpl$dsub) refers to daddsub_clz.o(x$fpl$dadd) for _dadd1
    daddsub_clz.o(x$fpl$dsub) refers to dnaninf.o(x$fpl$dnaninf) for __fpl_dnaninf
    ddiv.o(x$fpl$drdiv) refers (Special) to usenofp.o(x$fpl$usenofp) for __I$use$fp
    ddiv.o(x$fpl$drdiv) refers to ddiv.o(x$fpl$ddiv) for ddiv_entry
    ddiv.o(x$fpl$ddiv) refers (Special) to usenofp.o(x$fpl$usenofp) for __I$use$fp
    ddiv.o(x$fpl$ddiv) refers to dretinf.o(x$fpl$dretinf) for __fpl_dretinf
    ddiv.o(x$fpl$ddiv) refers to dnaninf.o(x$fpl$dnaninf) for __fpl_dnaninf
    dflt_clz.o(x$fpl$dfltu) refers (Special) to usenofp.o(x$fpl$usenofp) for __I$use$fp
    dflt_clz.o(x$fpl$dflt) refers (Special) to usenofp.o(x$fpl$usenofp) for __I$use$fp
    dflt_clz.o(x$fpl$dfltn) refers (Special) to usenofp.o(x$fpl$usenofp) for __I$use$fp
    dleqf.o(x$fpl$dleqf) refers (Special) to usenofp.o(x$fpl$usenofp) for __I$use$fp
    dleqf.o(x$fpl$dleqf) refers to dnaninf.o(x$fpl$dnaninf) for __fpl_dnaninf
    dleqf.o(x$fpl$dleqf) refers to dcmpi.o(x$fpl$dcmpinf) for __fpl_dcmp_Inf
    dmul.o(x$fpl$dmul) refers (Special) to usenofp.o(x$fpl$usenofp) for __I$use$fp
    dmul.o(x$fpl$dmul) refers to dretinf.o(x$fpl$dretinf) for __fpl_dretinf
    dmul.o(x$fpl$dmul) refers to dnaninf.o(x$fpl$dnaninf) for __fpl_dnaninf
    drleqf.o(x$fpl$drleqf) refers (Special) to usenofp.o(x$fpl$usenofp) for __I$use$fp
    drleqf.o(x$fpl$drleqf) refers to dleqf.o(x$fpl$dleqf) for __fpl_dcmple_InfNaN
    f2d.o(x$fpl$f2d) refers (Special) to usenofp.o(x$fpl$usenofp) for __I$use$fp
    f2d.o(x$fpl$f2d) refers to fnaninf.o(x$fpl$fnaninf) for __fpl_fnaninf
    f2d.o(x$fpl$f2d) refers to dretinf.o(x$fpl$dretinf) for __fpl_dretinf
    acosf.o(i.__hardfp_acosf) refers (Special) to usenofp.o(x$fpl$usenofp) for __I$use$fp
    acosf.o(i.__hardfp_acosf) refers to sqrtf.o(i.sqrtf) for sqrtf
    acosf.o(i.__hardfp_acosf) refers to funder.o(i.__mathlib_flt_infnan) for __mathlib_flt_infnan
    acosf.o(i.__hardfp_acosf) refers to _rserrno.o(.text) for __set_errno
    acosf.o(i.__hardfp_acosf) refers to funder.o(i.__mathlib_flt_invalid) for __mathlib_flt_invalid
    acosf.o(i.__softfp_acosf) refers (Special) to usenofp.o(x$fpl$usenofp) for __I$use$fp
    acosf.o(i.__softfp_acosf) refers to acosf.o(i.__hardfp_acosf) for __hardfp_acosf
    acosf.o(i.acosf) refers (Special) to usenofp.o(x$fpl$usenofp) for __I$use$fp
    acosf.o(i.acosf) refers to acosf.o(i.__hardfp_acosf) for __hardfp_acosf
    acosf_x.o(i.____hardfp_acosf$lsc) refers (Special) to usenofp.o(x$fpl$usenofp) for __I$use$fp
    acosf_x.o(i.____hardfp_acosf$lsc) refers to sqrtf.o(i.sqrtf) for sqrtf
    acosf_x.o(i.____hardfp_acosf$lsc) refers to funder.o(i.__mathlib_flt_infnan) for __mathlib_flt_infnan
    acosf_x.o(i.____hardfp_acosf$lsc) refers to _rserrno.o(.text) for __set_errno
    acosf_x.o(i.____softfp_acosf$lsc) refers (Special) to usenofp.o(x$fpl$usenofp) for __I$use$fp
    acosf_x.o(i.____softfp_acosf$lsc) refers to acosf_x.o(i.____hardfp_acosf$lsc) for ____hardfp_acosf$lsc
    acosf_x.o(i.__acosf$lsc) refers (Special) to usenofp.o(x$fpl$usenofp) for __I$use$fp
    acosf_x.o(i.__acosf$lsc) refers to acosf_x.o(i.____hardfp_acosf$lsc) for ____hardfp_acosf$lsc
    asin.o(i.__hardfp_asin) refers (Special) to usenofp.o(x$fpl$usenofp) for __I$use$fp
    asin.o(i.__hardfp_asin) refers to dunder.o(i.__mathlib_dbl_infnan) for __mathlib_dbl_infnan
    asin.o(i.__hardfp_asin) refers to dmul.o(x$fpl$dmul) for __aeabi_dmul
    asin.o(i.__hardfp_asin) refers to daddsub_clz.o(x$fpl$dadd) for __aeabi_dadd
    asin.o(i.__hardfp_asin) refers to _rserrno.o(.text) for __set_errno
    asin.o(i.__hardfp_asin) refers to dunder.o(i.__mathlib_dbl_invalid) for __mathlib_dbl_invalid
    asin.o(i.__hardfp_asin) refers to fpclassify.o(i.__ARM_fpclassify) for __ARM_fpclassify
    asin.o(i.__hardfp_asin) refers to dunder.o(i.__mathlib_dbl_underflow) for __mathlib_dbl_underflow
    asin.o(i.__hardfp_asin) refers to poly.o(i.__kernel_poly) for __kernel_poly
    asin.o(i.__hardfp_asin) refers to ddiv.o(x$fpl$ddiv) for __aeabi_ddiv
    asin.o(i.__hardfp_asin) refers to fabs.o(i.fabs) for fabs
    asin.o(i.__hardfp_asin) refers to daddsub_clz.o(x$fpl$drsb) for __aeabi_drsub
    asin.o(i.__hardfp_asin) refers to sqrt.o(i.sqrt) for sqrt
    asin.o(i.__hardfp_asin) refers to daddsub_clz.o(x$fpl$dsub) for __aeabi_dsub
    asin.o(i.__hardfp_asin) refers to basic.o(x$fpl$basic) for __aeabi_dneg
    asin.o(i.__hardfp_asin) refers to asin.o(.constdata) for .constdata
    asin.o(i.__softfp_asin) refers (Special) to usenofp.o(x$fpl$usenofp) for __I$use$fp
    asin.o(i.__softfp_asin) refers to asin.o(i.__hardfp_asin) for __hardfp_asin
    asin.o(i.asin) refers (Special) to usenofp.o(x$fpl$usenofp) for __I$use$fp
    asin.o(i.asin) refers to asin.o(i.__hardfp_asin) for __hardfp_asin
    asin.o(.constdata) refers (Special) to usenofp.o(x$fpl$usenofp) for __I$use$fp
    asin_x.o(i.____hardfp_asin$lsc) refers (Special) to usenofp.o(x$fpl$usenofp) for __I$use$fp
    asin_x.o(i.____hardfp_asin$lsc) refers to dunder.o(i.__mathlib_dbl_infnan) for __mathlib_dbl_infnan
    asin_x.o(i.____hardfp_asin$lsc) refers to dmul.o(x$fpl$dmul) for __aeabi_dmul
    asin_x.o(i.____hardfp_asin$lsc) refers to daddsub_clz.o(x$fpl$dadd) for __aeabi_dadd
    asin_x.o(i.____hardfp_asin$lsc) refers to _rserrno.o(.text) for __set_errno
    asin_x.o(i.____hardfp_asin$lsc) refers to poly.o(i.__kernel_poly) for __kernel_poly
    asin_x.o(i.____hardfp_asin$lsc) refers to ddiv.o(x$fpl$ddiv) for __aeabi_ddiv
    asin_x.o(i.____hardfp_asin$lsc) refers to fabs.o(i.fabs) for fabs
    asin_x.o(i.____hardfp_asin$lsc) refers to daddsub_clz.o(x$fpl$drsb) for __aeabi_drsub
    asin_x.o(i.____hardfp_asin$lsc) refers to sqrt.o(i.sqrt) for sqrt
    asin_x.o(i.____hardfp_asin$lsc) refers to daddsub_clz.o(x$fpl$dsub) for __aeabi_dsub
    asin_x.o(i.____hardfp_asin$lsc) refers to basic.o(x$fpl$basic) for __aeabi_dneg
    asin_x.o(i.____hardfp_asin$lsc) refers to asin_x.o(.constdata) for .constdata
    asin_x.o(i.____softfp_asin$lsc) refers (Special) to usenofp.o(x$fpl$usenofp) for __I$use$fp
    asin_x.o(i.____softfp_asin$lsc) refers to asin_x.o(i.____hardfp_asin$lsc) for ____hardfp_asin$lsc
    asin_x.o(i.__asin$lsc) refers (Special) to usenofp.o(x$fpl$usenofp) for __I$use$fp
    asin_x.o(i.__asin$lsc) refers to asin_x.o(i.____hardfp_asin$lsc) for ____hardfp_asin$lsc
    asin_x.o(.constdata) refers (Special) to usenofp.o(x$fpl$usenofp) for __I$use$fp
    atan2.o(i.__hardfp_atan2) refers (Special) to usenofp.o(x$fpl$usenofp) for __I$use$fp
    atan2.o(i.__hardfp_atan2) refers to dunder.o(i.__mathlib_dbl_infnan2) for __mathlib_dbl_infnan2
    atan2.o(i.__hardfp_atan2) refers to atan.o(i.atan) for atan
    atan2.o(i.__hardfp_atan2) refers to basic.o(x$fpl$basic) for __aeabi_dneg
    atan2.o(i.__hardfp_atan2) refers to ddiv.o(x$fpl$ddiv) for __aeabi_ddiv
    atan2.o(i.__hardfp_atan2) refers to fabs.o(i.fabs) for fabs
    atan2.o(i.__hardfp_atan2) refers to daddsub_clz.o(x$fpl$dsub) for __aeabi_dsub
    atan2.o(i.__hardfp_atan2) refers to daddsub_clz.o(x$fpl$drsb) for __aeabi_drsub
    atan2.o(i.__hardfp_atan2) refers to qnan.o(.constdata) for __mathlib_zero
    atan2.o(i.__softfp_atan2) refers (Special) to usenofp.o(x$fpl$usenofp) for __I$use$fp
    atan2.o(i.__softfp_atan2) refers to atan2.o(i.__hardfp_atan2) for __hardfp_atan2
    atan2.o(i.atan2) refers (Special) to usenofp.o(x$fpl$usenofp) for __I$use$fp
    atan2.o(i.atan2) refers to atan2.o(i.__hardfp_atan2) for __hardfp_atan2
    atan2_x.o(i.____hardfp_atan2$lsc) refers (Special) to usenofp.o(x$fpl$usenofp) for __I$use$fp
    atan2_x.o(i.____hardfp_atan2$lsc) refers to dunder.o(i.__mathlib_dbl_infnan2) for __mathlib_dbl_infnan2
    atan2_x.o(i.____hardfp_atan2$lsc) refers to atan.o(i.atan) for atan
    atan2_x.o(i.____hardfp_atan2$lsc) refers to _rserrno.o(.text) for __set_errno
    atan2_x.o(i.____hardfp_atan2$lsc) refers to basic.o(x$fpl$basic) for __aeabi_dneg
    atan2_x.o(i.____hardfp_atan2$lsc) refers to ddiv.o(x$fpl$ddiv) for __aeabi_ddiv
    atan2_x.o(i.____hardfp_atan2$lsc) refers to fabs.o(i.fabs) for fabs
    atan2_x.o(i.____hardfp_atan2$lsc) refers to daddsub_clz.o(x$fpl$dsub) for __aeabi_dsub
    atan2_x.o(i.____hardfp_atan2$lsc) refers to daddsub_clz.o(x$fpl$drsb) for __aeabi_drsub
    atan2_x.o(i.____hardfp_atan2$lsc) refers to qnan.o(.constdata) for __mathlib_zero
    atan2_x.o(i.____softfp_atan2$lsc) refers (Special) to usenofp.o(x$fpl$usenofp) for __I$use$fp
    atan2_x.o(i.____softfp_atan2$lsc) refers to atan2_x.o(i.____hardfp_atan2$lsc) for ____hardfp_atan2$lsc
    atan2_x.o(i.__atan2$lsc) refers (Special) to usenofp.o(x$fpl$usenofp) for __I$use$fp
    atan2_x.o(i.__atan2$lsc) refers to atan2_x.o(i.____hardfp_atan2$lsc) for ____hardfp_atan2$lsc
    cos.o(i.__hardfp_cos) refers (Special) to usenofp.o(x$fpl$usenofp) for __I$use$fp
    cos.o(i.__hardfp_cos) refers to _rserrno.o(.text) for __set_errno
    cos.o(i.__hardfp_cos) refers to dunder.o(i.__mathlib_dbl_invalid) for __mathlib_dbl_invalid
    cos.o(i.__hardfp_cos) refers to dunder.o(i.__mathlib_dbl_infnan) for __mathlib_dbl_infnan
    cos.o(i.__hardfp_cos) refers to rred.o(i.__ieee754_rem_pio2) for __ieee754_rem_pio2
    cos.o(i.__hardfp_cos) refers to sin_i.o(i.__kernel_sin) for __kernel_sin
    cos.o(i.__hardfp_cos) refers to cos_i.o(i.__kernel_cos) for __kernel_cos
    cos.o(i.__hardfp_cos) refers to basic.o(x$fpl$basic) for __aeabi_dneg
    cos.o(i.__softfp_cos) refers (Special) to usenofp.o(x$fpl$usenofp) for __I$use$fp
    cos.o(i.__softfp_cos) refers to cos.o(i.__hardfp_cos) for __hardfp_cos
    cos.o(i.cos) refers (Special) to usenofp.o(x$fpl$usenofp) for __I$use$fp
    cos.o(i.cos) refers to cos.o(i.__hardfp_cos) for __hardfp_cos
    cos_x.o(i.____hardfp_cos$lsc) refers (Special) to usenofp.o(x$fpl$usenofp) for __I$use$fp
    cos_x.o(i.____hardfp_cos$lsc) refers to _rserrno.o(.text) for __set_errno
    cos_x.o(i.____hardfp_cos$lsc) refers to dunder.o(i.__mathlib_dbl_infnan) for __mathlib_dbl_infnan
    cos_x.o(i.____hardfp_cos$lsc) refers to rred.o(i.__ieee754_rem_pio2) for __ieee754_rem_pio2
    cos_x.o(i.____hardfp_cos$lsc) refers to sin_i.o(i.__kernel_sin) for __kernel_sin
    cos_x.o(i.____hardfp_cos$lsc) refers to cos_i.o(i.__kernel_cos) for __kernel_cos
    cos_x.o(i.____hardfp_cos$lsc) refers to basic.o(x$fpl$basic) for __aeabi_dneg
    cos_x.o(i.____softfp_cos$lsc) refers (Special) to usenofp.o(x$fpl$usenofp) for __I$use$fp
    cos_x.o(i.____softfp_cos$lsc) refers to cos_x.o(i.____hardfp_cos$lsc) for ____hardfp_cos$lsc
    cos_x.o(i.__cos$lsc) refers (Special) to usenofp.o(x$fpl$usenofp) for __I$use$fp
    cos_x.o(i.__cos$lsc) refers to cos_x.o(i.____hardfp_cos$lsc) for ____hardfp_cos$lsc
    fabs.o(i.__hardfp_fabs) refers (Special) to usenofp.o(x$fpl$usenofp) for __I$use$fp
    fabs.o(i.__softfp_fabs) refers (Special) to usenofp.o(x$fpl$usenofp) for __I$use$fp
    fabs.o(i.fabs) refers (Special) to usenofp.o(x$fpl$usenofp) for __I$use$fp
    powf.o(i.__hardfp_powf) refers (Special) to usenofp.o(x$fpl$usenofp) for __I$use$fp
    powf.o(i.__hardfp_powf) refers to _rserrno.o(.text) for __set_errno
    powf.o(i.__hardfp_powf) refers to funder.o(i.__mathlib_flt_overflow) for __mathlib_flt_overflow
    powf.o(i.__hardfp_powf) refers to fpclassifyf.o(i.__ARM_fpclassifyf) for __ARM_fpclassifyf
    powf.o(i.__hardfp_powf) refers to funder.o(i.__mathlib_flt_underflow) for __mathlib_flt_underflow
    powf.o(i.__hardfp_powf) refers to funder.o(i.__mathlib_flt_invalid) for __mathlib_flt_invalid
    powf.o(i.__hardfp_powf) refers to powf.o(.constdata) for .constdata
    powf.o(i.__hardfp_powf) refers to funder.o(i.__mathlib_flt_infnan2) for __mathlib_flt_infnan2
    powf.o(i.__hardfp_powf) refers to funder.o(i.__mathlib_flt_divzero) for __mathlib_flt_divzero
    powf.o(i.__softfp_powf) refers (Special) to usenofp.o(x$fpl$usenofp) for __I$use$fp
    powf.o(i.__softfp_powf) refers to powf.o(i.__hardfp_powf) for __hardfp_powf
    powf.o(i.powf) refers (Special) to usenofp.o(x$fpl$usenofp) for __I$use$fp
    powf.o(i.powf) refers to powf.o(i.__hardfp_powf) for __hardfp_powf
    powf.o(.constdata) refers (Special) to usenofp.o(x$fpl$usenofp) for __I$use$fp
    powf_x.o(i.____hardfp_powf$lsc) refers (Special) to usenofp.o(x$fpl$usenofp) for __I$use$fp
    powf_x.o(i.____hardfp_powf$lsc) refers to _rserrno.o(.text) for __set_errno
    powf_x.o(i.____hardfp_powf$lsc) refers to powf_x.o(.constdata) for .constdata
    powf_x.o(i.____hardfp_powf$lsc) refers to funder.o(i.__mathlib_flt_infnan2) for __mathlib_flt_infnan2
    powf_x.o(i.____softfp_powf$lsc) refers (Special) to usenofp.o(x$fpl$usenofp) for __I$use$fp
    powf_x.o(i.____softfp_powf$lsc) refers to powf_x.o(i.____hardfp_powf$lsc) for ____hardfp_powf$lsc
    powf_x.o(i.__powf$lsc) refers (Special) to usenofp.o(x$fpl$usenofp) for __I$use$fp
    powf_x.o(i.__powf$lsc) refers to powf_x.o(i.____hardfp_powf$lsc) for ____hardfp_powf$lsc
    powf_x.o(.constdata) refers (Special) to usenofp.o(x$fpl$usenofp) for __I$use$fp
    sin.o(i.__hardfp_sin) refers (Special) to usenofp.o(x$fpl$usenofp) for __I$use$fp
    sin.o(i.__hardfp_sin) refers to _rserrno.o(.text) for __set_errno
    sin.o(i.__hardfp_sin) refers to dunder.o(i.__mathlib_dbl_invalid) for __mathlib_dbl_invalid
    sin.o(i.__hardfp_sin) refers to dunder.o(i.__mathlib_dbl_infnan) for __mathlib_dbl_infnan
    sin.o(i.__hardfp_sin) refers to rred.o(i.__ieee754_rem_pio2) for __ieee754_rem_pio2
    sin.o(i.__hardfp_sin) refers to cos_i.o(i.__kernel_cos) for __kernel_cos
    sin.o(i.__hardfp_sin) refers to basic.o(x$fpl$basic) for __aeabi_dneg
    sin.o(i.__hardfp_sin) refers to sin_i.o(i.__kernel_sin) for __kernel_sin
    sin.o(i.__softfp_sin) refers (Special) to usenofp.o(x$fpl$usenofp) for __I$use$fp
    sin.o(i.__softfp_sin) refers to sin.o(i.__hardfp_sin) for __hardfp_sin
    sin.o(i.sin) refers (Special) to usenofp.o(x$fpl$usenofp) for __I$use$fp
    sin.o(i.sin) refers to sin.o(i.__hardfp_sin) for __hardfp_sin
    sin_x.o(i.____hardfp_sin$lsc) refers (Special) to usenofp.o(x$fpl$usenofp) for __I$use$fp
    sin_x.o(i.____hardfp_sin$lsc) refers to _rserrno.o(.text) for __set_errno
    sin_x.o(i.____hardfp_sin$lsc) refers to dunder.o(i.__mathlib_dbl_infnan) for __mathlib_dbl_infnan
    sin_x.o(i.____hardfp_sin$lsc) refers to rred.o(i.__ieee754_rem_pio2) for __ieee754_rem_pio2
    sin_x.o(i.____hardfp_sin$lsc) refers to cos_i.o(i.__kernel_cos) for __kernel_cos
    sin_x.o(i.____hardfp_sin$lsc) refers to basic.o(x$fpl$basic) for __aeabi_dneg
    sin_x.o(i.____hardfp_sin$lsc) refers to sin_i.o(i.__kernel_sin) for __kernel_sin
    sin_x.o(i.____softfp_sin$lsc) refers (Special) to usenofp.o(x$fpl$usenofp) for __I$use$fp
    sin_x.o(i.____softfp_sin$lsc) refers to sin_x.o(i.____hardfp_sin$lsc) for ____hardfp_sin$lsc
    sin_x.o(i.__sin$lsc) refers (Special) to usenofp.o(x$fpl$usenofp) for __I$use$fp
    sin_x.o(i.__sin$lsc) refers to sin_x.o(i.____hardfp_sin$lsc) for ____hardfp_sin$lsc
    sqrtf.o(i.__hardfp_sqrtf) refers (Special) to usenofp.o(x$fpl$usenofp) for __I$use$fp
    sqrtf.o(i.__hardfp_sqrtf) refers to _rserrno.o(.text) for __set_errno
    sqrtf.o(i.__softfp_sqrtf) refers (Special) to usenofp.o(x$fpl$usenofp) for __I$use$fp
    sqrtf.o(i.__softfp_sqrtf) refers to _rserrno.o(.text) for __set_errno
    sqrtf.o(i.sqrtf) refers (Special) to usenofp.o(x$fpl$usenofp) for __I$use$fp
    sqrtf.o(i.sqrtf) refers to _rserrno.o(.text) for __set_errno
    sqrtf_x.o(i.____hardfp_sqrtf$lsc) refers (Special) to usenofp.o(x$fpl$usenofp) for __I$use$fp
    sqrtf_x.o(i.____hardfp_sqrtf$lsc) refers to _rserrno.o(.text) for __set_errno
    sqrtf_x.o(i.____softfp_sqrtf$lsc) refers (Special) to usenofp.o(x$fpl$usenofp) for __I$use$fp
    sqrtf_x.o(i.____softfp_sqrtf$lsc) refers to _rserrno.o(.text) for __set_errno
    sqrtf_x.o(i.__sqrtf$lsc) refers (Special) to usenofp.o(x$fpl$usenofp) for __I$use$fp
    sqrtf_x.o(i.__sqrtf$lsc) refers to _rserrno.o(.text) for __set_errno
    __rtentry.o(.ARM.Collect$$rtentry$$00000000) refers (Special) to __rtentry2.o(.ARM.Collect$$rtentry$$0000000A) for __rt_entry_li
    __rtentry.o(.ARM.Collect$$rtentry$$00000000) refers (Special) to __rtentry2.o(.ARM.Collect$$rtentry$$0000000D) for __rt_entry_main
    __rtentry.o(.ARM.Collect$$rtentry$$00000000) refers (Special) to __rtentry2.o(.ARM.Collect$$rtentry$$0000000C) for __rt_entry_postli_1
    __rtentry.o(.ARM.Collect$$rtentry$$00000000) refers (Special) to __rtentry2.o(.ARM.Collect$$rtentry$$00000009) for __rt_entry_postsh_1
    __rtentry.o(.ARM.Collect$$rtentry$$00000000) refers (Special) to __rtentry2.o(.ARM.Collect$$rtentry$$00000002) for __rt_entry_presh_1
    __rtentry.o(.ARM.Collect$$rtentry$$00000000) refers (Special) to __rtentry4.o(.ARM.Collect$$rtentry$$00000004) for __rt_entry_sh
    rt_heap_descriptor.o(.text) refers to rt_heap_descriptor.o(.bss) for __rt_heap_descriptor_data
    rt_heap_descriptor_intlibspace.o(.text) refers to libspace.o(.bss) for __libspace_start
    rt_new_handler_addr.o(.text) refers to rt_new_handler_addr.o(.bss) for __rt_new_handler_addr_data
    rt_new_handler_addr_intlibspace.o(.text) refers to libspace.o(.bss) for __libspace_start
    init_alloc.o(.text) refers (Special) to hguard.o(.text) for __heap$guard
    init_alloc.o(.text) refers (Special) to libinit2.o(.ARM.Collect$$libinit$$00000005) for __rt_lib_init_heap_2
    init_alloc.o(.text) refers (Special) to maybetermalloc1.o(.emb_text) for _maybe_terminate_alloc
    init_alloc.o(.text) refers to heapauxmm.o(.text) for __rt_heap_expand
    init_alloc.o(.text) refers to h1_extend.o(.text) for __Heap_ProvideMemory
    init_alloc.o(.text) refers to defsig_rtmem_outer.o(.text) for __rt_SIGRTMEM
    init_alloc.o(.text) refers to rt_heap_descriptor.o(.text) for __rt_heap_descriptor
    init_alloc.o(.text) refers to h1_init.o(.text) for __Heap_Initialize
    h1_init_mt.o(.text) refers to mutex_dummy.o(.text) for _mutex_initialize
    _rserrno.o(.text) refers to rt_errno_addr.o(.text) for __aeabi_errno_addr
    _printf_str.o(.text) refers (Special) to _printf_char.o(.text) for _printf_cs_common
    _printf_str.o(.text) refers (Weak) to _printf_pad.o(.text) for _printf_pre_padding
    _printf_str.o(.text) refers (Weak) to _printf_pad.o(.text) for _printf_post_padding
    _printf_intcommon.o(.text) refers (Weak) to _printf_pad.o(.text) for _printf_pre_padding
    _printf_intcommon.o(.text) refers (Weak) to _printf_pad.o(.text) for _printf_pre_padding
    _printf_intcommon.o(.text) refers (Weak) to _printf_pad.o(.text) for _printf_post_padding
    _printf_dec.o(.text) refers (Weak) to _printf_truncate.o(.text) for _printf_truncate_signed
    _printf_dec.o(.text) refers (Weak) to _printf_truncate.o(.text) for _printf_truncate_unsigned
    _printf_dec.o(.text) refers to _printf_intcommon.o(.text) for _printf_int_common
    _printf_char_common.o(.text) refers to __printf_flags_ss_wp.o(.text) for __printf
    _printf_char_file.o(.text) refers to _printf_char_common.o(.text) for _printf_char_common
    _printf_char_file.o(.text) refers to ferror.o(.text) for ferror
    _printf_char_file.o(.text) refers to fputc.o(i.fputc) for fputc
    _printf_wctomb.o(.text) refers (Special) to _printf_wchar.o(.text) for _printf_lcs_common
    _printf_wctomb.o(.text) refers to _wcrtomb.o(.text) for _wcrtomb
    _printf_wctomb.o(.text) refers (Weak) to _printf_pad.o(.text) for _printf_pre_padding
    _printf_wctomb.o(.text) refers (Weak) to _printf_pad.o(.text) for _printf_post_padding
    _printf_wctomb.o(.text) refers to _printf_wctomb.o(.constdata) for .constdata
    _printf_wctomb.o(.constdata) refers (Special) to _printf_wchar.o(.text) for _printf_lcs_common
    _printf_longlong_dec.o(.text) refers to lludiv10.o(.text) for _ll_udiv10
    _printf_longlong_dec.o(.text) refers to _printf_intcommon.o(.text) for _printf_int_common
    _printf_oct_ll.o(.text) refers to _printf_intcommon.o(.text) for _printf_int_common
    _printf_oct_int.o(.text) refers (Weak) to _printf_truncate.o(.text) for _printf_truncate_unsigned
    _printf_oct_int.o(.text) refers to _printf_intcommon.o(.text) for _printf_int_common
    _printf_oct_int_ll.o(.text) refers to _printf_intcommon.o(.text) for _printf_int_common
    _printf_oct_int_ll.o(.text) refers (Weak) to _printf_truncate.o(.text) for _printf_truncate_unsigned
    _printf_c.o(.ARM.Collect$$_printf_percent$$00000013) refers (Weak) to _printf_char.o(.text) for _printf_char
    _printf_s.o(.ARM.Collect$$_printf_percent$$00000014) refers (Weak) to _printf_char.o(.text) for _printf_string
    _printf_n.o(.ARM.Collect$$_printf_percent$$00000001) refers (Weak) to _printf_charcount.o(.text) for _printf_charcount
    _printf_x.o(.ARM.Collect$$_printf_percent$$0000000C) refers (Weak) to _printf_hex_int_ll_ptr.o(.text) for _printf_int_hex
    _printf_o.o(.ARM.Collect$$_printf_percent$$0000000B) refers (Weak) to _printf_oct_int_ll.o(.text) for _printf_int_oct
    _printf_i.o(.ARM.Collect$$_printf_percent$$00000008) refers (Weak) to _printf_dec.o(.text) for _printf_int_dec
    _printf_d.o(.ARM.Collect$$_printf_percent$$00000009) refers (Weak) to _printf_dec.o(.text) for _printf_int_dec
    _printf_u.o(.ARM.Collect$$_printf_percent$$0000000A) refers (Weak) to _printf_dec.o(.text) for _printf_int_dec
    _printf_f.o(.ARM.Collect$$_printf_percent$$00000003) refers (Weak) to printf1.o(x$fpl$printf1) for _printf_fp_dec
    _printf_e.o(.ARM.Collect$$_printf_percent$$00000004) refers (Weak) to printf1.o(x$fpl$printf1) for _printf_fp_dec
    _printf_g.o(.ARM.Collect$$_printf_percent$$00000005) refers (Weak) to printf1.o(x$fpl$printf1) for _printf_fp_dec
    _printf_a.o(.ARM.Collect$$_printf_percent$$00000006) refers (Weak) to printf2.o(x$fpl$printf2) for _printf_fp_hex
    _printf_lli.o(.ARM.Collect$$_printf_percent$$0000000D) refers (Special) to _printf_ll.o(.ARM.Collect$$_printf_percent$$00000007) for _printf_ll
    _printf_lli.o(.ARM.Collect$$_printf_percent$$0000000D) refers (Weak) to _printf_longlong_dec.o(.text) for _printf_longlong_dec
    _printf_lld.o(.ARM.Collect$$_printf_percent$$0000000E) refers (Special) to _printf_ll.o(.ARM.Collect$$_printf_percent$$00000007) for _printf_ll
    _printf_lld.o(.ARM.Collect$$_printf_percent$$0000000E) refers (Weak) to _printf_longlong_dec.o(.text) for _printf_longlong_dec
    _printf_llu.o(.ARM.Collect$$_printf_percent$$0000000F) refers (Special) to _printf_ll.o(.ARM.Collect$$_printf_percent$$00000007) for _printf_ll
    _printf_llu.o(.ARM.Collect$$_printf_percent$$0000000F) refers (Weak) to _printf_longlong_dec.o(.text) for _printf_longlong_dec
    _printf_lc.o(.ARM.Collect$$_printf_percent$$00000015) refers (Special) to _printf_l.o(.ARM.Collect$$_printf_percent$$00000012) for _printf_l
    _printf_lc.o(.ARM.Collect$$_printf_percent$$00000015) refers (Weak) to _printf_wchar.o(.text) for _printf_wchar
    _printf_ls.o(.ARM.Collect$$_printf_percent$$00000016) refers (Special) to _printf_l.o(.ARM.Collect$$_printf_percent$$00000012) for _printf_l
    _printf_ls.o(.ARM.Collect$$_printf_percent$$00000016) refers (Weak) to _printf_wchar.o(.text) for _printf_wstring
    _printf_llo.o(.ARM.Collect$$_printf_percent$$00000010) refers (Special) to _printf_ll.o(.ARM.Collect$$_printf_percent$$00000007) for _printf_ll
    _printf_llo.o(.ARM.Collect$$_printf_percent$$00000010) refers (Weak) to _printf_oct_int_ll.o(.text) for _printf_ll_oct
    _printf_llx.o(.ARM.Collect$$_printf_percent$$00000011) refers (Special) to _printf_ll.o(.ARM.Collect$$_printf_percent$$00000007) for _printf_ll
    _printf_llx.o(.ARM.Collect$$_printf_percent$$00000011) refers (Weak) to _printf_hex_int_ll_ptr.o(.text) for _printf_ll_hex
    _scanf_longlong.o(.text) refers to _chval.o(.text) for _chval
    scanf_char.o(.text) refers to _scanf.o(.text) for __vfscanf
    scanf_char.o(.text) refers to isspace.o(.text) for isspace
    scanf_char_file.o(.text) refers to scanf_char.o(.text) for __vfscanf_char
    scanf_char_file.o(.text) refers to fgetc.o(i.fgetc) for fgetc
    scanf_char_file.o(.text) refers to backspace.o(.text) for __backspace
    _scanf_mbtowc.o(.text) refers to _mbrtowc.o(.text) for _mbrtowc
    _scanf_wctomb.o(.text) refers to _wcrtomb.o(.text) for _wcrtomb
    _scanf_wctomb.o(.text) refers to _scanf_wcharmap.o(.text) for _scanf_wcharmap
    _scanf_wstr.o(.text) refers to _scanf_wcharmap.o(.text) for _scanf_wcharmap
    filbuf.o(.text) refers to retarget.o(i._sys_read) for _sys_read
    filbuf.o(.text) refers to stdio.o(.text) for _seterr
    filbuf.o(.text) refers to h1_alloc.o(.text) for malloc
    filbuf.o(.text) refers to retarget.o(i._sys_seek) for _sys_seek
    filbuf.o(.text) refers to flushlinebuffered.o(.text) for _flushlinebuffered
    flsbuf.o(.text) refers to stdio.o(.text) for _deferredlazyseek
    flsbuf.o(.text) refers to retarget.o(i._sys_flen) for _sys_flen
    flsbuf.o(.text) refers to retarget.o(i._sys_istty) for _sys_istty
    flsbuf.o(.text) refers to h1_alloc.o(.text) for malloc
    fseek.o(.text) refers to retarget.o(i._sys_istty) for _sys_istty
    fseek.o(.text) refers to ftell.o(.text) for _ftell_internal
    fseek.o(.text) refers to retarget.o(i._sys_flen) for _sys_flen
    fseek.o(.text) refers to stdio.o(.text) for _seterr
    stdio.o(.text) refers to retarget.o(i._sys_seek) for _sys_seek
    stdio.o(.text) refers to retarget.o(i._sys_write) for _sys_write
    streamlock.o(.data) refers (Special) to initio.o(.text) for _initio
    initio.o(.text) refers (Special) to libinit2.o(.ARM.Collect$$libinit$$00000024) for __rt_lib_init_stdio_2
    initio.o(.text) refers (Special) to libshutdown2.o(.ARM.Collect$$libshutdown$$00000004) for __rt_lib_shutdown_stdio_2
    initio.o(.text) refers to rt_memclr_w.o(.text) for __aeabi_memclr4
    initio.o(.text) refers to fopen.o(.text) for freopen
    initio.o(.text) refers to defsig_rtred_outer.o(.text) for __rt_SIGRTRED
    initio.o(.text) refers to setvbuf.o(.text) for setvbuf
    initio.o(.text) refers to fclose.o(.text) for _fclose_internal
    initio.o(.text) refers to h1_free.o(.text) for free
    initio.o(.text) refers to stdio_streams.o(.bss) for __stdin
    initio.o(.text) refers to stdio_streams.o(.bss) for __stdout
    initio.o(.text) refers to stdio_streams.o(.bss) for __stderr
    initio.o(.text) refers to stdio_streams.o(.data) for __aeabi_stdin
    initio.o(.text) refers to stdio_streams.o(.data) for __aeabi_stdout
    initio.o(.text) refers to stdio_streams.o(.data) for __aeabi_stderr
    initio.o(.text) refers to retarget.o(.constdata) for __stdin_name
    initio_locked.o(.text) refers (Special) to libinit2.o(.ARM.Collect$$libinit$$00000024) for __rt_lib_init_stdio_2
    initio_locked.o(.text) refers (Special) to libshutdown2.o(.ARM.Collect$$libshutdown$$00000004) for __rt_lib_shutdown_stdio_2
    initio_locked.o(.text) refers to rt_memclr_w.o(.text) for __aeabi_memclr4
    initio_locked.o(.text) refers to fopen.o(.text) for freopen
    initio_locked.o(.text) refers to defsig_rtred_outer.o(.text) for __rt_SIGRTRED
    initio_locked.o(.text) refers to setvbuf.o(.text) for setvbuf
    initio_locked.o(.text) refers to fclose.o(.text) for _fclose_internal
    initio_locked.o(.text) refers to h1_free.o(.text) for free
    initio_locked.o(.text) refers to stdio_streams.o(.bss) for __stdin
    initio_locked.o(.text) refers to stdio_streams.o(.bss) for __stdout
    initio_locked.o(.text) refers to stdio_streams.o(.bss) for __stderr
    initio_locked.o(.text) refers to stdio_streams.o(.data) for __aeabi_stdin
    initio_locked.o(.text) refers to stdio_streams.o(.data) for __aeabi_stdout
    initio_locked.o(.text) refers to stdio_streams.o(.data) for __aeabi_stderr
    initio_locked.o(.text) refers to streamlock.o(.data) for _stream_list_lock
    initio_locked.o(.text) refers to retarget.o(.constdata) for __stdin_name
    abort.o(.text) refers to defsig_abrt_outer.o(.text) for __rt_SIGABRT
    abort.o(.text) refers to sys_exit.o(.text) for _sys_exit
    defsig_pvfn_outer.o(.text) refers to defsig_pvfn_inner.o(.text) for __rt_SIGPVFN_inner
    defsig_pvfn_outer.o(.text) refers to defsig_exit.o(.text) for __sig_exit
    defsig_pvfn_formal.o(.text) refers to rt_raise.o(.text) for __rt_raise
    assert_puts.o(.text) refers to sys_wrch.o(.text) for _ttywrch
    _get_argv.o(.text) refers (Special) to hrguard.o(.text) for __heap_region$guard
    _get_argv.o(.text) refers to h1_alloc.o(.text) for malloc
    _get_argv.o(.text) refers to defsig_rtmem_outer.o(.text) for __rt_SIGRTMEM
    _get_argv.o(.text) refers to retarget.o(i._sys_command_string) for _sys_command_string
    libinit2.o(.ARM.Collect$$libinit$$00000001) refers to fpinit.o(x$fpl$fpinit) for _fp_init
    libinit2.o(.ARM.Collect$$libinit$$00000005) refers (Weak) to init_alloc.o(.text) for _init_alloc
    libinit2.o(.ARM.Collect$$libinit$$0000000F) refers (Weak) to rt_locale.o(.text) for __rt_locale
    libinit2.o(.ARM.Collect$$libinit$$00000010) refers to libinit2.o(.ARM.Collect$$libinit$$0000000F) for .ARM.Collect$$libinit$$0000000F
    libinit2.o(.ARM.Collect$$libinit$$00000012) refers to libinit2.o(.ARM.Collect$$libinit$$0000000F) for .ARM.Collect$$libinit$$0000000F
    libinit2.o(.ARM.Collect$$libinit$$00000012) refers (Weak) to lc_ctype_c.o(locale$$code) for _get_lc_ctype
    libinit2.o(.ARM.Collect$$libinit$$00000014) refers to libinit2.o(.ARM.Collect$$libinit$$0000000F) for .ARM.Collect$$libinit$$0000000F
    libinit2.o(.ARM.Collect$$libinit$$00000016) refers to libinit2.o(.ARM.Collect$$libinit$$0000000F) for .ARM.Collect$$libinit$$0000000F
    libinit2.o(.ARM.Collect$$libinit$$00000016) refers (Weak) to lc_numeric_c.o(locale$$code) for _get_lc_numeric
    libinit2.o(.ARM.Collect$$libinit$$00000018) refers to libinit2.o(.ARM.Collect$$libinit$$0000000F) for .ARM.Collect$$libinit$$0000000F
    libinit2.o(.ARM.Collect$$libinit$$00000024) refers (Weak) to initio.o(.text) for _initio
    libinit2.o(.ARM.Collect$$libinit$$00000026) refers to argv_veneer.o(.emb_text) for __ARM_argv_veneer
    libinit2.o(.ARM.Collect$$libinit$$00000027) refers to argv_veneer.o(.emb_text) for __ARM_argv_veneer
    libinit2.o(.ARM.Collect$$libinit$$00000031) refers (Weak) to init_aeabi.o(.text) for __cpp_initialize__aeabi_
    filbuf_fwide.o(.text) refers to filbuf.o(.text) for __filbuf
    flsbuf_fwide.o(.text) refers to flsbuf.o(.text) for __flsbuf
    arm_callunex_noexceptions.o(.ARM.exidx) refers to arm_callunex_noexceptions.o(.text) for .text
    arm_newhandler_noexceptions.o(.text) refers to arm_exceptions_terminate.o(.text) for std::terminate()
    arm_newhandler_noexceptions.o(.ARM.exidx) refers to arm_newhandler_noexceptions.o(.text) for .text
    bad_alloc_dtor.o(i._ZNSt9bad_allocD0Ev) refers to bad_alloc_dtor.o(i._ZNSt9bad_allocD1Ev) for std::bad_alloc::~bad_alloc()
    bad_alloc_dtor.o(i._ZNSt9bad_allocD0Ev) refers to delete.o(i._ZdlPv) for operator delete (void*)
    bad_alloc_dtor.o(.ARM.exidx) refers to bad_alloc_dtor.o(i._ZNSt9bad_allocD1Ev) for i._ZNSt9bad_allocD1Ev
    bad_alloc_dtor.o(.ARM.exidx) refers to bad_alloc_dtor.o(i._ZNSt9bad_allocD0Ev) for i._ZNSt9bad_allocD0Ev
    type_info_dtor.o(.ARM.exidx) refers to type_info_dtor.o(i._ZNSt9type_infoD1Ev) for i._ZNSt9type_infoD1Ev
    type_info_dtor.o(.ARM.exidx) refers to type_info_dtor.o(i._ZNSt9type_infoD0Ev) for i._ZNSt9type_infoD0Ev
    arm_exceptions_callterm.o(.text) refers to arm_exceptions_globs.o(.text) for __cxa_get_globals
    arm_exceptions_callterm.o(.text) refers to arm_exceptions_support.o(.text) for __ARM::is_foreign_exception(_Unwind_Control_Block*)
    arm_exceptions_callterm.o(.text) refers to arm_exceptions_terminate.o(.text) for std::terminate()
    arm_exceptions_callterm.o(.ARM.exidx) refers to arm_exceptions_callterm.o(.text) for .text
    unwind_pr0.o(.text) refers to unwind_prcommon.o(.text) for __ARM_unwind_cpp_prcommon
    unwind_pr0.o(.ARM.exidx) refers to unwind_pr0.o(.text) for .text
    dcmpi.o(x$fpl$dcmpinf) refers (Special) to usenofp.o(x$fpl$usenofp) for __I$use$fp
    dnaninf.o(x$fpl$dnaninf) refers (Special) to usenofp.o(x$fpl$usenofp) for __I$use$fp
    dretinf.o(x$fpl$dretinf) refers (Special) to usenofp.o(x$fpl$usenofp) for __I$use$fp
    fnaninf.o(x$fpl$fnaninf) refers (Special) to usenofp.o(x$fpl$usenofp) for __I$use$fp
    fretinf.o(x$fpl$fretinf) refers (Special) to usenofp.o(x$fpl$usenofp) for __I$use$fp
    istatus.o(x$fpl$ieeestatus) refers (Special) to usenofp.o(x$fpl$usenofp) for __I$use$fp
    printf1.o(x$fpl$printf1) refers to _printf_fp_dec.o(.text) for _printf_fp_dec_real
    printf2.o(x$fpl$printf2) refers to _printf_fp_hex.o(.text) for _printf_fp_hex_real
    printf2b.o(x$fpl$printf2) refers to _printf_fp_hex.o(.text) for _printf_fp_hex_real
    scanf1.o(x$fpl$scanf1) refers to scanf_fp.o(.text) for _scanf_really_real
    atan.o(i.__hardfp_atan) refers (Special) to usenofp.o(x$fpl$usenofp) for __I$use$fp
    atan.o(i.__hardfp_atan) refers to dunder.o(i.__mathlib_dbl_infnan) for __mathlib_dbl_infnan
    atan.o(i.__hardfp_atan) refers to fpclassify.o(i.__ARM_fpclassify) for __ARM_fpclassify
    atan.o(i.__hardfp_atan) refers to dunder.o(i.__mathlib_dbl_underflow) for __mathlib_dbl_underflow
    atan.o(i.__hardfp_atan) refers to fabs.o(i.fabs) for fabs
    atan.o(i.__hardfp_atan) refers to daddsub_clz.o(x$fpl$dadd) for __aeabi_dadd
    atan.o(i.__hardfp_atan) refers to dmul.o(x$fpl$dmul) for __aeabi_dmul
    atan.o(i.__hardfp_atan) refers to daddsub_clz.o(x$fpl$dsub) for __aeabi_dsub
    atan.o(i.__hardfp_atan) refers to ddiv.o(x$fpl$ddiv) for __aeabi_ddiv
    atan.o(i.__hardfp_atan) refers to poly.o(i.__kernel_poly) for __kernel_poly
    atan.o(i.__hardfp_atan) refers to daddsub_clz.o(x$fpl$drsb) for __aeabi_drsub
    atan.o(i.__hardfp_atan) refers to basic.o(x$fpl$basic) for __aeabi_dneg
    atan.o(i.__hardfp_atan) refers to atan.o(.constdata) for .constdata
    atan.o(i.__softfp_atan) refers (Special) to usenofp.o(x$fpl$usenofp) for __I$use$fp
    atan.o(i.__softfp_atan) refers to atan.o(i.__hardfp_atan) for __hardfp_atan
    atan.o(i.atan) refers (Special) to usenofp.o(x$fpl$usenofp) for __I$use$fp
    atan.o(i.atan) refers to atan.o(i.__hardfp_atan) for __hardfp_atan
    atan.o(.constdata) refers (Special) to usenofp.o(x$fpl$usenofp) for __I$use$fp
    atan_x.o(i.____hardfp_atan$lsc) refers (Special) to usenofp.o(x$fpl$usenofp) for __I$use$fp
    atan_x.o(i.____hardfp_atan$lsc) refers to dunder.o(i.__mathlib_dbl_infnan) for __mathlib_dbl_infnan
    atan_x.o(i.____hardfp_atan$lsc) refers to fabs.o(i.fabs) for fabs
    atan_x.o(i.____hardfp_atan$lsc) refers to daddsub_clz.o(x$fpl$dadd) for __aeabi_dadd
    atan_x.o(i.____hardfp_atan$lsc) refers to dmul.o(x$fpl$dmul) for __aeabi_dmul
    atan_x.o(i.____hardfp_atan$lsc) refers to daddsub_clz.o(x$fpl$dsub) for __aeabi_dsub
    atan_x.o(i.____hardfp_atan$lsc) refers to ddiv.o(x$fpl$ddiv) for __aeabi_ddiv
    atan_x.o(i.____hardfp_atan$lsc) refers to poly.o(i.__kernel_poly) for __kernel_poly
    atan_x.o(i.____hardfp_atan$lsc) refers to daddsub_clz.o(x$fpl$drsb) for __aeabi_drsub
    atan_x.o(i.____hardfp_atan$lsc) refers to basic.o(x$fpl$basic) for __aeabi_dneg
    atan_x.o(i.____hardfp_atan$lsc) refers to atan_x.o(.constdata) for .constdata
    atan_x.o(i.____softfp_atan$lsc) refers (Special) to usenofp.o(x$fpl$usenofp) for __I$use$fp
    atan_x.o(i.____softfp_atan$lsc) refers to atan_x.o(i.____hardfp_atan$lsc) for ____hardfp_atan$lsc
    atan_x.o(i.__atan$lsc) refers (Special) to usenofp.o(x$fpl$usenofp) for __I$use$fp
    atan_x.o(i.__atan$lsc) refers to atan_x.o(i.____hardfp_atan$lsc) for ____hardfp_atan$lsc
    atan_x.o(.constdata) refers (Special) to usenofp.o(x$fpl$usenofp) for __I$use$fp
    cos_i.o(i.__kernel_cos) refers (Special) to usenofp.o(x$fpl$usenofp) for __I$use$fp
    cos_i.o(i.__kernel_cos) refers to dfix.o(x$fpl$dfix) for __aeabi_d2iz
    cos_i.o(i.__kernel_cos) refers to dmul.o(x$fpl$dmul) for __aeabi_dmul
    cos_i.o(i.__kernel_cos) refers to poly.o(i.__kernel_poly) for __kernel_poly
    cos_i.o(i.__kernel_cos) refers to daddsub_clz.o(x$fpl$dsub) for __aeabi_dsub
    cos_i.o(i.__kernel_cos) refers to daddsub_clz.o(x$fpl$drsb) for __aeabi_drsub
    cos_i.o(i.__kernel_cos) refers to cos_i.o(.constdata) for .constdata
    cos_i.o(.constdata) refers (Special) to usenofp.o(x$fpl$usenofp) for __I$use$fp
    dunder.o(i.__mathlib_dbl_divzero) refers to ddiv.o(x$fpl$ddiv) for __aeabi_ddiv
    dunder.o(i.__mathlib_dbl_infnan) refers to daddsub_clz.o(x$fpl$dadd) for __aeabi_dadd
    dunder.o(i.__mathlib_dbl_infnan2) refers to daddsub_clz.o(x$fpl$dadd) for __aeabi_dadd
    dunder.o(i.__mathlib_dbl_invalid) refers to ddiv.o(x$fpl$ddiv) for __aeabi_ddiv
    dunder.o(i.__mathlib_dbl_overflow) refers to dmul.o(x$fpl$dmul) for __aeabi_dmul
    dunder.o(i.__mathlib_dbl_posinfnan) refers to dmul.o(x$fpl$dmul) for __aeabi_dmul
    dunder.o(i.__mathlib_dbl_underflow) refers to dmul.o(x$fpl$dmul) for __aeabi_dmul
    fpclassify.o(i.__ARM_fpclassify) refers (Special) to usenofp.o(x$fpl$usenofp) for __I$use$fp
    fpclassifyf.o(i.__ARM_fpclassifyf) refers (Special) to usenofp.o(x$fpl$usenofp) for __I$use$fp
    poly.o(i.__kernel_poly) refers (Special) to usenofp.o(x$fpl$usenofp) for __I$use$fp
    poly.o(i.__kernel_poly) refers to dmul.o(x$fpl$dmul) for __aeabi_dmul
    poly.o(i.__kernel_poly) refers to daddsub_clz.o(x$fpl$dadd) for __aeabi_dadd
    qnan.o(.constdata) refers (Special) to usenofp.o(x$fpl$usenofp) for __I$use$fp
    rred.o(i.__ieee754_rem_pio2) refers (Special) to usenofp.o(x$fpl$usenofp) for __I$use$fp
    rred.o(i.__ieee754_rem_pio2) refers to daddsub_clz.o(x$fpl$dsub) for __aeabi_dsub
    rred.o(i.__ieee754_rem_pio2) refers to daddsub_clz.o(x$fpl$dadd) for __aeabi_dadd
    rred.o(i.__ieee754_rem_pio2) refers to fabs.o(i.fabs) for fabs
    rred.o(i.__ieee754_rem_pio2) refers to dmul.o(x$fpl$dmul) for __aeabi_dmul
    rred.o(i.__ieee754_rem_pio2) refers to dfix.o(x$fpl$dfix) for __aeabi_d2iz
    rred.o(i.__ieee754_rem_pio2) refers to dflt_clz.o(x$fpl$dflt) for __aeabi_i2d
    rred.o(i.__ieee754_rem_pio2) refers to daddsub_clz.o(x$fpl$drsb) for __aeabi_drsub
    rred.o(i.__ieee754_rem_pio2) refers to basic.o(x$fpl$basic) for __aeabi_dneg
    rred.o(i.__ieee754_rem_pio2) refers to dflt_clz.o(x$fpl$dfltu) for __aeabi_ui2d
    rred.o(i.__ieee754_rem_pio2) refers to rred.o(.constdata) for .constdata
    rred.o(i.__use_accurate_range_reduction) refers (Special) to usenofp.o(x$fpl$usenofp) for __I$use$fp
    rred.o(.constdata) refers (Special) to usenofp.o(x$fpl$usenofp) for __I$use$fp
    sin_i.o(i.__kernel_sin) refers (Special) to usenofp.o(x$fpl$usenofp) for __I$use$fp
    sin_i.o(i.__kernel_sin) refers to fpclassify.o(i.__ARM_fpclassify) for __ARM_fpclassify
    sin_i.o(i.__kernel_sin) refers to dunder.o(i.__mathlib_dbl_underflow) for __mathlib_dbl_underflow
    sin_i.o(i.__kernel_sin) refers to dmul.o(x$fpl$dmul) for __aeabi_dmul
    sin_i.o(i.__kernel_sin) refers to poly.o(i.__kernel_poly) for __kernel_poly
    sin_i.o(i.__kernel_sin) refers to daddsub_clz.o(x$fpl$dsub) for __aeabi_dsub
    sin_i.o(i.__kernel_sin) refers to daddsub_clz.o(x$fpl$drsb) for __aeabi_drsub
    sin_i.o(i.__kernel_sin) refers to daddsub_clz.o(x$fpl$dadd) for __aeabi_dadd
    sin_i.o(i.__kernel_sin) refers to sin_i.o(.constdata) for .constdata
    sin_i.o(.constdata) refers (Special) to usenofp.o(x$fpl$usenofp) for __I$use$fp
    sin_i_x.o(i.____kernel_sin$lsc) refers (Special) to usenofp.o(x$fpl$usenofp) for __I$use$fp
    sin_i_x.o(i.____kernel_sin$lsc) refers to dmul.o(x$fpl$dmul) for __aeabi_dmul
    sin_i_x.o(i.____kernel_sin$lsc) refers to poly.o(i.__kernel_poly) for __kernel_poly
    sin_i_x.o(i.____kernel_sin$lsc) refers to daddsub_clz.o(x$fpl$dsub) for __aeabi_dsub
    sin_i_x.o(i.____kernel_sin$lsc) refers to daddsub_clz.o(x$fpl$drsb) for __aeabi_drsub
    sin_i_x.o(i.____kernel_sin$lsc) refers to daddsub_clz.o(x$fpl$dadd) for __aeabi_dadd
    sin_i_x.o(i.____kernel_sin$lsc) refers to sin_i_x.o(.constdata) for .constdata
    sin_i_x.o(.constdata) refers (Special) to usenofp.o(x$fpl$usenofp) for __I$use$fp
    sqrt.o(i.__hardfp_sqrt) refers (Special) to usenofp.o(x$fpl$usenofp) for __I$use$fp
    sqrt.o(i.__hardfp_sqrt) refers to dsqrt_umaal.o(x$fpl$dsqrt) for _dsqrt
    sqrt.o(i.__hardfp_sqrt) refers to _rserrno.o(.text) for __set_errno
    sqrt.o(i.__softfp_sqrt) refers (Special) to usenofp.o(x$fpl$usenofp) for __I$use$fp
    sqrt.o(i.__softfp_sqrt) refers to dsqrt_umaal.o(x$fpl$dsqrt) for _dsqrt
    sqrt.o(i.__softfp_sqrt) refers to _rserrno.o(.text) for __set_errno
    sqrt.o(i.sqrt) refers (Special) to usenofp.o(x$fpl$usenofp) for __I$use$fp
    sqrt.o(i.sqrt) refers to dsqrt_umaal.o(x$fpl$dsqrt) for _dsqrt
    sqrt.o(i.sqrt) refers to _rserrno.o(.text) for __set_errno
    sqrt_x.o(i.____hardfp_sqrt$lsc) refers (Special) to usenofp.o(x$fpl$usenofp) for __I$use$fp
    sqrt_x.o(i.____hardfp_sqrt$lsc) refers to dleqf.o(x$fpl$dleqf) for __aeabi_cdcmple
    sqrt_x.o(i.____hardfp_sqrt$lsc) refers to _rserrno.o(.text) for __set_errno
    sqrt_x.o(i.____hardfp_sqrt$lsc) refers to dsqrt_umaal.o(x$fpl$dsqrt) for _dsqrt
    sqrt_x.o(i.____softfp_sqrt$lsc) refers (Special) to usenofp.o(x$fpl$usenofp) for __I$use$fp
    sqrt_x.o(i.____softfp_sqrt$lsc) refers to dleqf.o(x$fpl$dleqf) for __aeabi_cdcmple
    sqrt_x.o(i.____softfp_sqrt$lsc) refers to _rserrno.o(.text) for __set_errno
    sqrt_x.o(i.____softfp_sqrt$lsc) refers to dsqrt_umaal.o(x$fpl$dsqrt) for _dsqrt
    sqrt_x.o(i.__sqrt$lsc) refers (Special) to usenofp.o(x$fpl$usenofp) for __I$use$fp
    sqrt_x.o(i.__sqrt$lsc) refers to dleqf.o(x$fpl$dleqf) for __aeabi_cdcmple
    sqrt_x.o(i.__sqrt$lsc) refers to _rserrno.o(.text) for __set_errno
    sqrt_x.o(i.__sqrt$lsc) refers to dsqrt_umaal.o(x$fpl$dsqrt) for _dsqrt
    sys_wrch.o(.text) refers (Special) to use_no_semi.o(.text) for __I$use$semihosting
    sys_wrch.o(.text) refers (Special) to indicate_semi.o(.text) for __semihosting_library_function
    sys_exit.o(.text) refers (Special) to use_no_semi.o(.text) for __I$use$semihosting
    sys_exit.o(.text) refers (Special) to indicate_semi.o(.text) for __semihosting_library_function
    libspace.o(.text) refers to libspace.o(.bss) for __libspace_start
    __rtentry2.o(.ARM.Collect$$rtentry$$00000008) refers to boardinit2.o(.text) for _platform_post_stackheap_init
    __rtentry2.o(.ARM.Collect$$rtentry$$0000000A) refers to libinit.o(.ARM.Collect$$libinit$$00000000) for __rt_lib_init
    __rtentry2.o(.ARM.Collect$$rtentry$$0000000B) refers to boardinit3.o(.text) for _platform_post_lib_init
    __rtentry2.o(.ARM.Collect$$rtentry$$0000000D) refers to retarget.o(i.$Sub$$main) for main
    __rtentry2.o(.ARM.Collect$$rtentry$$0000000D) refers to retarget.o(i.exit) for exit
    __rtentry2.o(.ARM.exidx) refers to __rtentry2.o(.ARM.Collect$$rtentry$$00000001) for .ARM.Collect$$rtentry$$00000001
    __rtentry2.o(.ARM.exidx) refers to __rtentry2.o(.ARM.Collect$$rtentry$$00000008) for .ARM.Collect$$rtentry$$00000008
    __rtentry2.o(.ARM.exidx) refers to __rtentry2.o(.ARM.Collect$$rtentry$$0000000A) for .ARM.Collect$$rtentry$$0000000A
    __rtentry2.o(.ARM.exidx) refers to __rtentry2.o(.ARM.Collect$$rtentry$$0000000B) for .ARM.Collect$$rtentry$$0000000B
    __rtentry2.o(.ARM.exidx) refers to __rtentry2.o(.ARM.Collect$$rtentry$$0000000D) for .ARM.Collect$$rtentry$$0000000D
    __rtentry4.o(.ARM.Collect$$rtentry$$00000004) refers to sys.o(i.__user_setup_stackheap) for __user_setup_stackheap
    __rtentry4.o(.ARM.exidx) refers to __rtentry4.o(.ARM.Collect$$rtentry$$00000004) for .ARM.Collect$$rtentry$$00000004
    rt_raise.o(.text) refers to __raise.o(.text) for __raise
    rt_raise.o(.text) refers to sys_exit.o(.text) for _sys_exit
    rt_errno_addr.o(.text) refers to rt_errno_addr.o(.bss) for __aeabi_errno_addr_data
    rt_errno_addr_intlibspace.o(.text) refers to libspace.o(.bss) for __libspace_start
    maybetermalloc2.o(.emb_text) refers (Special) to term_alloc.o(.text) for _terminate_alloc
    h1_extend.o(.text) refers to h1_free.o(.text) for free
    h1_extend_mt.o(.text) refers to h1_free_mt.o(.text) for _free_internal
    isspace.o(.text) refers to rt_ctype_table.o(.text) for __rt_ctype_table
    _printf_fp_dec.o(.text) refers (Special) to usenofp.o(x$fpl$usenofp) for __I$use$fp
    _printf_fp_dec.o(.text) refers (Special) to lc_numeric_c.o(locale$$code) for _get_lc_numeric
    _printf_fp_dec.o(.text) refers to bigflt0.o(.text) for _btod_etento
    _printf_fp_dec.o(.text) refers to btod.o(CL$$btod_d2e) for _btod_d2e
    _printf_fp_dec.o(.text) refers to btod.o(CL$$btod_ediv) for _btod_ediv
    _printf_fp_dec.o(.text) refers to btod.o(CL$$btod_emul) for _btod_emul
    _printf_fp_dec.o(.text) refers to lludiv10.o(.text) for _ll_udiv10
    _printf_fp_dec.o(.text) refers to fpclassify.o(i.__ARM_fpclassify) for __ARM_fpclassify
    _printf_fp_dec.o(.text) refers to _printf_fp_infnan.o(.text) for _printf_fp_infnan
    _printf_fp_dec.o(.text) refers (Weak) to _printf_pad.o(.text) for _printf_pre_padding
    _printf_fp_dec.o(.text) refers (Weak) to _printf_pad.o(.text) for _printf_pre_padding
    _printf_fp_dec.o(.text) refers to rt_locale.o(.text) for __rt_locale
    _printf_fp_dec.o(.text) refers (Weak) to _printf_pad.o(.text) for _printf_post_padding
    _printf_fp_hex.o(.text) refers (Special) to usenofp.o(x$fpl$usenofp) for __I$use$fp
    _printf_fp_hex.o(.text) refers to fpclassify.o(i.__ARM_fpclassify) for __ARM_fpclassify
    _printf_fp_hex.o(.text) refers to _printf_fp_infnan.o(.text) for _printf_fp_infnan
    _printf_fp_hex.o(.text) refers (Weak) to _printf_pad.o(.text) for _printf_pre_padding
    _printf_fp_hex.o(.text) refers (Weak) to _printf_pad.o(.text) for _printf_pre_padding
    _printf_fp_hex.o(.text) refers (Weak) to _printf_pad.o(.text) for _printf_post_padding
    _printf_fp_hex.o(.text) refers to _printf_fp_hex.o(.constdata) for .constdata
    _printf_fp_hex.o(.constdata) refers (Special) to usenofp.o(x$fpl$usenofp) for __I$use$fp
    _printf_char.o(.text) refers (Weak) to _printf_str.o(.text) for _printf_str
    _printf_char_file_locked.o(.text) refers to _printf_char_common.o(.text) for _printf_char_common
    _printf_char_file_locked.o(.text) refers to fputc.o(i._fputc$unlocked) for _fputc$unlocked
    _printf_wchar.o(.text) refers (Weak) to _printf_wctomb.o(.text) for _printf_wctomb
    _scanf.o(.text) refers (Weak) to scanf1.o(x$fpl$scanf1) for _scanf_real
    _scanf.o(.text) refers (Weak) to _scanf_longlong.o(.text) for _scanf_longlong
    _scanf.o(.text) refers (Weak) to _scanf_int.o(.text) for _scanf_int
    _scanf.o(.text) refers (Weak) to _scanf_wstr.o(.text) for _scanf_wstring
    _scanf.o(.text) refers (Weak) to _scanf_mbtowc.o(.text) for _scanf_mbtowc
    _scanf.o(.text) refers (Weak) to _scanf_str.o(.text) for _scanf_string
    _scanf.o(.text) refers (Weak) to _scanf_wctomb.o(.text) for _scanf_wctomb
    scanf_fp.o(.text) refers (Special) to usenofp.o(x$fpl$usenofp) for __I$use$fp
    scanf_fp.o(.text) refers (Special) to lc_numeric_c.o(locale$$code) for _get_lc_numeric
    scanf_fp.o(.text) refers to rt_errno_addr.o(.text) for __aeabi_errno_addr
    scanf_fp.o(.text) refers to bigflt0.o(.text) for _btod_etento
    scanf_fp.o(.text) refers to btod.o(CL$$btod_emuld) for _btod_emuld
    scanf_fp.o(.text) refers to btod.o(CL$$btod_edivd) for _btod_edivd
    scanf_fp.o(.text) refers to rt_locale.o(.text) for __rt_locale
    scanf_fp.o(.text) refers to scanf2.o(x$fpl$scanf2) for _scanf_infnan
    scanf_fp.o(.text) refers to __printf_wp.o(i._is_digit) for _is_digit
    scanf_fp.o(.text) refers to narrow.o(i.__mathlib_narrow) for __mathlib_narrow
    scanf_fp.o(.text) refers to fpconst.o(c$$dinf) for __huge_val
    scanf_char_file_locked.o(.text) refers to scanf_char.o(.text) for __vfscanf_char
    scanf_char_file_locked.o(.text) refers to fgetc.o(i._fgetc$unlocked) for _fgetc$unlocked
    scanf_char_file_locked.o(.text) refers to backspace.o(.text) for ___backspace$unlocked
    backspace.o(.text) refers to ungetc.o(.text) for _ungetc_internal
    ftell.o(.text) refers to rt_errno_addr.o(.text) for __aeabi_errno_addr
    freadfast.o(.text) refers to filbuf.o(.text) for _readbuf
    freadfast.o(.text) refers to rt_memcpy_v6.o(.text) for __aeabi_memcpy
    fread_bytes_avail.o(.text) refers to filbuf.o(.text) for __filbuf_byte
    fread_bytes_avail.o(.text) refers to rt_memcpy_v6.o(.text) for __aeabi_memcpy
    fwritefast.o(.text) refers to stdio.o(.text) for _writebuf
    fwritefast.o(.text) refers to flsbuf.o(.text) for __flsbuf_byte
    fwritefast.o(.text) refers to rt_memcpy_v6.o(.text) for __aeabi_memcpy
    flushlinebuffered.o(.text) refers to fflush.o(.text) for _do_fflush
    flushlinebuffered.o(.text) refers to stdio_streams.o(.bss) for __stdin
    freadfast_locked.o(.text) refers to filbuf.o(.text) for _readbuf
    freadfast_locked.o(.text) refers to rt_memcpy_v6.o(.text) for __aeabi_memcpy
    fread_bytes_avail_locked.o(.text) refers to filbuf.o(.text) for __filbuf_byte
    fread_bytes_avail_locked.o(.text) refers to rt_memcpy_v6.o(.text) for __aeabi_memcpy
    fwritefast_locked.o(.text) refers to stdio.o(.text) for _writebuf
    fwritefast_locked.o(.text) refers to flsbuf.o(.text) for __flsbuf_byte
    fwritefast_locked.o(.text) refers to rt_memcpy_v6.o(.text) for __aeabi_memcpy
    flushlinebuffered_locked.o(.text) refers to fflush.o(.text) for _do_fflush
    flushlinebuffered_locked.o(.text) refers to streamlock.o(.data) for _stream_list_lock
    flushlinebuffered_locked.o(.text) refers to stdio_streams.o(.bss) for __stdin
    _mbrtowc.o(.text) refers to rt_ctype_table.o(.text) for __rt_ctype_table
    _wcrtomb.o(.text) refers to rt_ctype_table.o(.text) for __rt_ctype_table
    defsig_exit.o(.text) refers to sys_exit.o(.text) for _sys_exit
    defsig_abrt_outer.o(.text) refers to defsig_abrt_inner.o(.text) for __rt_SIGABRT_inner
    defsig_abrt_outer.o(.text) refers to defsig_exit.o(.text) for __sig_exit
    defsig_abrt_formal.o(.text) refers to rt_raise.o(.text) for __rt_raise
    defsig_rtred_outer.o(.text) refers to defsig_rtred_inner.o(.text) for __rt_SIGRTRED_inner
    defsig_rtred_outer.o(.text) refers to defsig_exit.o(.text) for __sig_exit
    defsig_rtred_formal.o(.text) refers to rt_raise.o(.text) for __rt_raise
    defsig_rtmem_outer.o(.text) refers to defsig_rtmem_inner.o(.text) for __rt_SIGRTMEM_inner
    defsig_rtmem_outer.o(.text) refers to defsig_exit.o(.text) for __sig_exit
    defsig_rtmem_formal.o(.text) refers to rt_raise.o(.text) for __rt_raise
    defsig_pvfn_inner.o(.text) refers to defsig_general.o(.text) for __default_signal_display
    assert_stdio.o(.text) refers to fputs.o(.text) for fputs
    assert_stdio.o(.text) refers to fflush.o(.text) for fflush
    assert_stdio.o(.text) refers to stdio_streams.o(.bss) for __stderr
    heapauxa.o(.text) refers to heapauxa.o(.data) for .data
    heapauxmm.o(.text) refers to sdram.o(i.__rt_heap_extend) for __rt_heap_extend
    argv_veneer.o(.emb_text) refers to no_argv.o(.text) for __ARM_get_argv
    libshutdown2.o(.ARM.Collect$$libshutdown$$00000003) refers (Weak) to initio.o(.text) for _terminateio
    libshutdown2.o(.ARM.Collect$$libshutdown$$0000000D) refers (Weak) to term_alloc.o(.text) for _terminate_alloc
    arm_begincatch_noexceptions.o(.ARM.exidx) refers to arm_begincatch_noexceptions.o(.text) for .text
    bad_alloc_what.o(.ARM.exidx) refers to bad_alloc_what.o(i._ZNKSt9bad_alloc4whatEv) for i._ZNKSt9bad_alloc4whatEv
    exception_dtor.o(i._ZNSt9exceptionD0Ev) refers to delete.o(i._ZdlPv) for operator delete (void*)
    exception_dtor.o(.ARM.exidx) refers to exception_dtor.o(i._ZNSt9exceptionD1Ev) for i._ZNSt9exceptionD1Ev
    exception_dtor.o(.ARM.exidx) refers to exception_dtor.o(i._ZNSt9exceptionD0Ev) for i._ZNSt9exceptionD0Ev
    arm_exceptions_support.o(.text) refers to arm_exceptions_support.o(.constdata) for .constdata
    arm_exceptions_support.o(.ARM.exidx) refers to arm_exceptions_support.o(.text) for .text
    arm_exceptions_terminate.o(.text) refers to arm_exceptions_globs.o(.text) for __cxa_get_globals
    arm_exceptions_terminate.o(.text) refers to abort.o(.text) for abort
    arm_exceptions_terminate.o(.ARM.exidx) refers to arm_exceptions_terminate.o(.text) for .text
    arm_exceptions_globs.o(.text) refers to abort.o(.text) for abort
    arm_exceptions_globs.o(.text) refers to rt_eh_globals_addr.o(.text) for __rt_eh_globals_addr
    arm_exceptions_globs.o(.text) refers to h1_alloc.o(.text) for malloc
    arm_exceptions_globs.o(.text) refers to arm_exceptions_mem.o(.text) for __ARM_exceptions_buffer_init
    arm_exceptions_globs.o(.ARM.exidx) refers to arm_exceptions_globs.o(.text) for .text
    unwind_prcommon.o(.text) refers to unwinder.o(.text) for _Unwind_VRS_Get
    unwind_prcommon.o(.text) refers to unwind_activity.o(.emb_text) for _Unwind_Activity
    unwind_prcommon.o(.text) refers (Weak) to arm_callunex_noexceptions.o(.text) for __cxa_call_unexpected
    unwind_prcommon.o(.ARM.exidx) refers to unwind_prcommon.o(.text) for .text
    dfix.o(x$fpl$dfix) refers (Special) to usenofp.o(x$fpl$usenofp) for __I$use$fp
    dfix.o(x$fpl$dfix) refers to dnaninf.o(x$fpl$dnaninf) for __fpl_dnaninf
    dfix.o(x$fpl$dfixr) refers (Special) to usenofp.o(x$fpl$usenofp) for __I$use$fp
    dfix.o(x$fpl$dfixr) refers to dnaninf.o(x$fpl$dnaninf) for __fpl_dnaninf
    dsqrt_umaal.o(x$fpl$dsqrt) refers (Special) to usenofp.o(x$fpl$usenofp) for __I$use$fp
    dsqrt_umaal.o(x$fpl$dsqrt) refers to dnaninf.o(x$fpl$dnaninf) for __fpl_dnaninf
    rt_ctype_table.o(.text) refers to rt_locale.o(.text) for __rt_locale
    rt_ctype_table.o(.text) refers to lc_ctype_c.o(locale$$code) for _get_lc_ctype
    rt_locale.o(.text) refers to rt_locale.o(.bss) for __rt_locale_data
    rt_locale_intlibspace.o(.text) refers to libspace.o(.bss) for __libspace_start
    rt_eh_globals_addr.o(.text) refers to rt_eh_globals_addr.o(.bss) for __rt_eh_globals_addr_data
    rt_eh_globals_addr_intlibspace.o(.text) refers to libspace.o(.bss) for __libspace_start
    term_alloc.o(.text) refers (Special) to libshutdown2.o(.ARM.Collect$$libshutdown$$0000000F) for __rt_lib_shutdown_heap_2
    term_alloc.o(.text) refers to rt_heap_descriptor.o(.text) for __rt_heap_descriptor
    term_alloc.o(.text) refers to h1_final.o(.text) for __Heap_Finalize
    _printf_fp_infnan.o(.text) refers (Weak) to _printf_pad.o(.text) for _printf_pre_padding
    _printf_fp_infnan.o(.text) refers (Weak) to _printf_pad.o(.text) for _printf_post_padding
    bigflt0.o(.text) refers (Special) to usenofp.o(x$fpl$usenofp) for __I$use$fp
    bigflt0.o(.text) refers to btod.o(CL$$btod_emul) for _btod_emul
    bigflt0.o(.text) refers to btod.o(CL$$btod_ediv) for _btod_ediv
    bigflt0.o(.text) refers to bigflt0.o(.constdata) for .constdata
    bigflt0.o(.constdata) refers (Special) to usenofp.o(x$fpl$usenofp) for __I$use$fp
    btod.o(CL$$btod_d2e) refers (Special) to usenofp.o(x$fpl$usenofp) for __I$use$fp
    btod.o(CL$$btod_d2e) refers to btod.o(CL$$btod_d2e_norm_op1) for _d2e_norm_op1
    btod.o(CL$$btod_d2e_norm_op1) refers (Special) to usenofp.o(x$fpl$usenofp) for __I$use$fp
    btod.o(CL$$btod_d2e_norm_op1) refers to btod.o(CL$$btod_d2e_denorm_low) for _d2e_denorm_low
    btod.o(CL$$btod_d2e_denorm_low) refers (Special) to usenofp.o(x$fpl$usenofp) for __I$use$fp
    btod.o(CL$$btod_emul) refers (Special) to usenofp.o(x$fpl$usenofp) for __I$use$fp
    btod.o(CL$$btod_emul) refers to btod.o(CL$$btod_mult_common) for __btod_mult_common
    btod.o(CL$$btod_emul) refers to btod.o(CL$$btod_e2e) for _e2e
    btod.o(CL$$btod_ediv) refers (Special) to usenofp.o(x$fpl$usenofp) for __I$use$fp
    btod.o(CL$$btod_ediv) refers to btod.o(CL$$btod_div_common) for __btod_div_common
    btod.o(CL$$btod_ediv) refers to btod.o(CL$$btod_e2e) for _e2e
    btod.o(CL$$btod_emuld) refers (Special) to usenofp.o(x$fpl$usenofp) for __I$use$fp
    btod.o(CL$$btod_emuld) refers to btod.o(CL$$btod_mult_common) for __btod_mult_common
    btod.o(CL$$btod_emuld) refers to btod.o(CL$$btod_e2d) for _e2d
    btod.o(CL$$btod_edivd) refers (Special) to usenofp.o(x$fpl$usenofp) for __I$use$fp
    btod.o(CL$$btod_edivd) refers to btod.o(CL$$btod_div_common) for __btod_div_common
    btod.o(CL$$btod_edivd) refers to btod.o(CL$$btod_e2d) for _e2d
    btod.o(CL$$btod_e2e) refers (Special) to usenofp.o(x$fpl$usenofp) for __I$use$fp
    btod.o(CL$$btod_e2d) refers (Special) to usenofp.o(x$fpl$usenofp) for __I$use$fp
    btod.o(CL$$btod_e2d) refers to btod.o(CL$$btod_e2e) for _e2e
    btod.o(CL$$btod_mult_common) refers (Special) to usenofp.o(x$fpl$usenofp) for __I$use$fp
    btod.o(CL$$btod_div_common) refers (Special) to usenofp.o(x$fpl$usenofp) for __I$use$fp
    lc_numeric_c.o(locale$$data) refers (Special) to libinit2.o(.ARM.Collect$$libinit$$00000016) for __rt_lib_init_lc_numeric_2
    lc_numeric_c.o(locale$$code) refers (Special) to libinit2.o(.ARM.Collect$$libinit$$00000016) for __rt_lib_init_lc_numeric_2
    lc_numeric_c.o(locale$$code) refers to strcmpv7m.o(.text) for strcmp
    lc_numeric_c.o(locale$$code) refers to lc_numeric_c.o(locale$$data) for __lcnum_c_name
    __raise.o(.text) refers to defsig.o(CL$$defsig) for __default_signal_handler
    defsig_general.o(.text) refers to sys_wrch.o(.text) for _ttywrch
    defsig_abrt_inner.o(.text) refers to defsig_general.o(.text) for __default_signal_display
    defsig_rtred_inner.o(.text) refers to defsig_general.o(.text) for __default_signal_display
    defsig_rtmem_inner.o(.text) refers to defsig_general.o(.text) for __default_signal_display
    _get_argv_nomalloc.o(.text) refers (Special) to hrguard.o(.text) for __heap_region$guard
    _get_argv_nomalloc.o(.text) refers to defsig_rtmem_outer.o(.text) for __rt_SIGRTMEM
    _get_argv_nomalloc.o(.text) refers to retarget.o(i._sys_command_string) for _sys_command_string
    libinit.o(.ARM.Collect$$libinit$$00000000) refers (Special) to libinit2.o(.ARM.Collect$$libinit$$0000002E) for __rt_lib_init_alloca_1
    libinit.o(.ARM.Collect$$libinit$$00000000) refers (Special) to libinit2.o(.ARM.Collect$$libinit$$0000002C) for __rt_lib_init_argv_1
    libinit.o(.ARM.Collect$$libinit$$00000000) refers (Special) to libinit2.o(.ARM.Collect$$libinit$$0000001B) for __rt_lib_init_atexit_1
    libinit.o(.ARM.Collect$$libinit$$00000000) refers (Special) to libinit2.o(.ARM.Collect$$libinit$$00000021) for __rt_lib_init_clock_1
    libinit.o(.ARM.Collect$$libinit$$00000000) refers (Special) to libinit2.o(.ARM.Collect$$libinit$$00000032) for __rt_lib_init_cpp_1
    libinit.o(.ARM.Collect$$libinit$$00000000) refers (Special) to libinit2.o(.ARM.Collect$$libinit$$00000030) for __rt_lib_init_exceptions_1
    libinit.o(.ARM.Collect$$libinit$$00000000) refers (Special) to libinit2.o(.ARM.Collect$$libinit$$00000001) for __rt_lib_init_fp_1
    libinit.o(.ARM.Collect$$libinit$$00000000) refers (Special) to libinit2.o(.ARM.Collect$$libinit$$0000001F) for __rt_lib_init_fp_trap_1
    libinit.o(.ARM.Collect$$libinit$$00000000) refers (Special) to libinit2.o(.ARM.Collect$$libinit$$00000023) for __rt_lib_init_getenv_1
    libinit.o(.ARM.Collect$$libinit$$00000000) refers (Special) to libinit2.o(.ARM.Collect$$libinit$$0000000A) for __rt_lib_init_heap_1
    libinit.o(.ARM.Collect$$libinit$$00000000) refers (Special) to libinit2.o(.ARM.Collect$$libinit$$00000011) for __rt_lib_init_lc_collate_1
    libinit.o(.ARM.Collect$$libinit$$00000000) refers (Special) to libinit2.o(.ARM.Collect$$libinit$$00000013) for __rt_lib_init_lc_ctype_1
    libinit.o(.ARM.Collect$$libinit$$00000000) refers (Special) to libinit2.o(.ARM.Collect$$libinit$$00000015) for __rt_lib_init_lc_monetary_1
    libinit.o(.ARM.Collect$$libinit$$00000000) refers (Special) to libinit2.o(.ARM.Collect$$libinit$$00000017) for __rt_lib_init_lc_numeric_1
    libinit.o(.ARM.Collect$$libinit$$00000000) refers (Special) to libinit2.o(.ARM.Collect$$libinit$$00000019) for __rt_lib_init_lc_time_1
    libinit.o(.ARM.Collect$$libinit$$00000000) refers (Special) to libinit2.o(.ARM.Collect$$libinit$$00000004) for __rt_lib_init_preinit_1
    libinit.o(.ARM.Collect$$libinit$$00000000) refers (Special) to libinit2.o(.ARM.Collect$$libinit$$0000000E) for __rt_lib_init_rand_1
    libinit.o(.ARM.Collect$$libinit$$00000000) refers (Special) to libinit2.o(.ARM.Collect$$libinit$$00000033) for __rt_lib_init_return
    libinit.o(.ARM.Collect$$libinit$$00000000) refers (Special) to libinit2.o(.ARM.Collect$$libinit$$0000001D) for __rt_lib_init_signal_1
    libinit.o(.ARM.Collect$$libinit$$00000000) refers (Special) to libinit2.o(.ARM.Collect$$libinit$$00000025) for __rt_lib_init_stdio_1
    libinit.o(.ARM.Collect$$libinit$$00000000) refers (Special) to libinit2.o(.ARM.Collect$$libinit$$0000000C) for __rt_lib_init_user_alloc_1
    exception_what.o(.ARM.exidx) refers to exception_what.o(i._ZNKSt9exception4whatEv) for i._ZNKSt9exception4whatEv
    arm_exceptions_mem.o(.text) refers to h1_alloc.o(.text) for malloc
    arm_exceptions_mem.o(.ARM.exidx) refers to arm_exceptions_mem.o(.text) for .text
    unwinder.o(.emb_text) refers to unwinder.o(.text) for __ARM_Unwind_RaiseException
    unwinder.o(.text) refers to bsearchnoex.o(.text) for bsearch
    unwinder.o(.text) refers to unwind_activity.o(.emb_text) for _Unwind_Activity
    unwinder.o(.text) refers to abort.o(.text) for abort
    unwinder.o(.text) refers to unwinder.o(.emb_text) for __ARM_Unwind_VRS_corerestore
    unwinder.o(.text) refers to h1_alloc.o(.text) for malloc
    unwinder.o(.text) refers to rt_memcpy_w.o(.text) for __aeabi_memcpy4
    unwinder.o(.text) refers to h1_free.o(.text) for free
    unwinder.o(.text) refers (Weak) to unwind_pr0.o(.text) for __aeabi_unwind_cpp_pr0
    unwinder.o(.ARM.exidx) refers to unwinder.o(.text) for .text
    fpconst.o(c$$dinf) refers (Special) to usenofp.o(x$fpl$usenofp) for __I$use$fp
    fpconst.o(c$$dnan) refers (Special) to usenofp.o(x$fpl$usenofp) for __I$use$fp
    fpconst.o(c$$finf) refers (Special) to usenofp.o(x$fpl$usenofp) for __I$use$fp
    scanf2.o(x$fpl$scanf2) refers to scanf_hexfp.o(.text) for _scanf_really_hex_real
    scanf2.o(x$fpl$scanf2) refers to scanf_infnan.o(.text) for _scanf_really_infnan
    scanf2b.o(x$fpl$scanf2) refers to scanf_hexfp.o(.text) for _scanf_really_hex_real
    scanf2b.o(x$fpl$scanf2) refers to scanf_infnan.o(.text) for _scanf_really_infnan
    narrow.o(i.__hardfp___mathlib_tofloat) refers (Special) to usenofp.o(x$fpl$usenofp) for __I$use$fp
    narrow.o(i.__hardfp___mathlib_tofloat) refers to frexp.o(i.frexp) for frexp
    narrow.o(i.__hardfp___mathlib_tofloat) refers to deqf.o(x$fpl$deqf) for __aeabi_cdcmpeq
    narrow.o(i.__hardfp___mathlib_tofloat) refers to d2f.o(x$fpl$d2f) for __aeabi_d2f
    narrow.o(i.__hardfp___mathlib_tofloat) refers to _rserrno.o(.text) for __set_errno
    narrow.o(i.__hardfp___mathlib_tofloat) refers to drleqf.o(x$fpl$drleqf) for __aeabi_cdrcmple
    narrow.o(i.__mathlib_narrow) refers (Special) to usenofp.o(x$fpl$usenofp) for __I$use$fp
    narrow.o(i.__mathlib_narrow) refers to frexp.o(i.frexp) for frexp
    narrow.o(i.__mathlib_narrow) refers to deqf.o(x$fpl$deqf) for __aeabi_cdcmpeq
    narrow.o(i.__mathlib_narrow) refers to d2f.o(x$fpl$d2f) for __aeabi_d2f
    narrow.o(i.__mathlib_narrow) refers to _rserrno.o(.text) for __set_errno
    narrow.o(i.__mathlib_narrow) refers to drleqf.o(x$fpl$drleqf) for __aeabi_cdrcmple
    narrow.o(i.__mathlib_tofloat) refers (Special) to usenofp.o(x$fpl$usenofp) for __I$use$fp
    narrow.o(i.__mathlib_tofloat) refers to frexp.o(i.frexp) for frexp
    narrow.o(i.__mathlib_tofloat) refers to deqf.o(x$fpl$deqf) for __aeabi_cdcmpeq
    narrow.o(i.__mathlib_tofloat) refers to d2f.o(x$fpl$d2f) for __aeabi_d2f
    narrow.o(i.__mathlib_tofloat) refers to _rserrno.o(.text) for __set_errno
    narrow.o(i.__mathlib_tofloat) refers to drleqf.o(x$fpl$drleqf) for __aeabi_cdrcmple
    narrow.o(i.__softfp___mathlib_tofloat) refers (Special) to usenofp.o(x$fpl$usenofp) for __I$use$fp
    narrow.o(i.__softfp___mathlib_tofloat) refers to frexp.o(i.frexp) for frexp
    narrow.o(i.__softfp___mathlib_tofloat) refers to deqf.o(x$fpl$deqf) for __aeabi_cdcmpeq
    narrow.o(i.__softfp___mathlib_tofloat) refers to d2f.o(x$fpl$d2f) for __aeabi_d2f
    narrow.o(i.__softfp___mathlib_tofloat) refers to _rserrno.o(.text) for __set_errno
    narrow.o(i.__softfp___mathlib_tofloat) refers to drleqf.o(x$fpl$drleqf) for __aeabi_cdrcmple
    scanf_hexfp.o(.text) refers to _chval.o(.text) for _chval
    scanf_hexfp.o(.text) refers to llshl.o(.text) for __aeabi_llsl
    scanf_hexfp.o(.text) refers to ldexp.o(i.__support_ldexp) for __support_ldexp
    scanf_hexfp.o(.text) refers to narrow.o(i.__mathlib_narrow) for __mathlib_narrow
    lc_ctype_c.o(locale$$data) refers (Special) to libinit2.o(.ARM.Collect$$libinit$$00000012) for __rt_lib_init_lc_ctype_2
    lc_ctype_c.o(locale$$code) refers (Special) to libinit2.o(.ARM.Collect$$libinit$$00000012) for __rt_lib_init_lc_ctype_2
    lc_ctype_c.o(locale$$code) refers to strcmpv7m.o(.text) for strcmp
    lc_ctype_c.o(locale$$code) refers to lc_ctype_c.o(locale$$data) for __lcctype_c_name
    defsig.o(CL$$defsig) refers to defsig_abrt_inner.o(.text) for __rt_SIGABRT_inner
    defsig.o(CL$$defsig) refers to defsig_rtred_inner.o(.text) for __rt_SIGRTRED_inner
    defsig.o(CL$$defsig) refers to defsig_rtmem_inner.o(.text) for __rt_SIGRTMEM_inner
    defsig.o(CL$$defsig) refers to defsig_pvfn_inner.o(.text) for __rt_SIGPVFN_inner
    deqf.o(x$fpl$deqf) refers (Special) to usenofp.o(x$fpl$usenofp) for __I$use$fp
    deqf.o(x$fpl$deqf) refers to dnaninf.o(x$fpl$dnaninf) for __fpl_dnaninf
    deqf.o(x$fpl$deqf) refers to dcmpi.o(x$fpl$dcmpinf) for __fpl_dcmp_Inf
    frexp.o(i.__hardfp_frexp) refers (Special) to usenofp.o(x$fpl$usenofp) for __I$use$fp
    frexp.o(i.__hardfp_frexp) refers to dmul.o(x$fpl$dmul) for __aeabi_dmul
    frexp.o(i.__softfp_frexp) refers (Special) to usenofp.o(x$fpl$usenofp) for __I$use$fp
    frexp.o(i.__softfp_frexp) refers to dmul.o(x$fpl$dmul) for __aeabi_dmul
    frexp.o(i.frexp) refers (Special) to usenofp.o(x$fpl$usenofp) for __I$use$fp
    frexp.o(i.frexp) refers to dmul.o(x$fpl$dmul) for __aeabi_dmul
    defsig_fpe_inner.o(.text) refers to defsig_general.o(.text) for __default_signal_display
    defsig_stak_inner.o(.text) refers to defsig_general.o(.text) for __default_signal_display
    defsig_cppl_inner.o(.text) refers to defsig_general.o(.text) for __default_signal_display
    defsig_segv_inner.o(.text) refers to defsig_general.o(.text) for __default_signal_display
    defsig_other.o(.text) refers to defsig_general.o(.text) for __default_signal_display
    ldexp.o(i.__hardfp_ldexp) refers (Special) to usenofp.o(x$fpl$usenofp) for __I$use$fp
    ldexp.o(i.__hardfp_ldexp) refers to deqf.o(x$fpl$deqf) for __aeabi_cdcmpeq
    ldexp.o(i.__hardfp_ldexp) refers to scalbn.o(x$fpl$scalbn) for __ARM_scalbn
    ldexp.o(i.__hardfp_ldexp) refers to _rserrno.o(.text) for __set_errno
    ldexp.o(i.__hardfp_ldexp) refers to dunder.o(i.__mathlib_dbl_underflow) for __mathlib_dbl_underflow
    ldexp.o(i.__hardfp_ldexp) refers to dunder.o(i.__mathlib_dbl_overflow) for __mathlib_dbl_overflow
    ldexp.o(i.__softfp_ldexp) refers (Special) to usenofp.o(x$fpl$usenofp) for __I$use$fp
    ldexp.o(i.__softfp_ldexp) refers to ldexp.o(i.__hardfp_ldexp) for __hardfp_ldexp
    ldexp.o(i.__support_ldexp) refers (Special) to usenofp.o(x$fpl$usenofp) for __I$use$fp
    ldexp.o(i.__support_ldexp) refers to ldexp.o(i.__hardfp_ldexp) for __hardfp_ldexp
    ldexp.o(i.ldexp) refers (Special) to usenofp.o(x$fpl$usenofp) for __I$use$fp
    ldexp.o(i.ldexp) refers to ldexp.o(i.__hardfp_ldexp) for __hardfp_ldexp
    ldexp_x.o(i.____hardfp_ldexp$lsc) refers (Special) to usenofp.o(x$fpl$usenofp) for __I$use$fp
    ldexp_x.o(i.____hardfp_ldexp$lsc) refers to deqf.o(x$fpl$deqf) for __aeabi_cdcmpeq
    ldexp_x.o(i.____hardfp_ldexp$lsc) refers to scalbn.o(x$fpl$scalbn) for __ARM_scalbn
    ldexp_x.o(i.____hardfp_ldexp$lsc) refers to _rserrno.o(.text) for __set_errno
    ldexp_x.o(i.____hardfp_ldexp$lsc) refers to qnan.o(.constdata) for __mathlib_zero
    ldexp_x.o(i.____softfp_ldexp$lsc) refers (Special) to usenofp.o(x$fpl$usenofp) for __I$use$fp
    ldexp_x.o(i.____softfp_ldexp$lsc) refers to ldexp_x.o(i.____hardfp_ldexp$lsc) for ____hardfp_ldexp$lsc
    ldexp_x.o(i.____support_ldexp$lsc) refers (Special) to usenofp.o(x$fpl$usenofp) for __I$use$fp
    ldexp_x.o(i.____support_ldexp$lsc) refers to ldexp_x.o(i.____hardfp_ldexp$lsc) for ____hardfp_ldexp$lsc
    ldexp_x.o(i.__ldexp$lsc) refers (Special) to usenofp.o(x$fpl$usenofp) for __I$use$fp
    ldexp_x.o(i.__ldexp$lsc) refers to ldexp_x.o(i.____hardfp_ldexp$lsc) for ____hardfp_ldexp$lsc
    scalbn.o(x$fpl$scalbn) refers (Special) to usenofp.o(x$fpl$usenofp) for __I$use$fp
    scalbn.o(x$fpl$scalbn) refers to dcheck1.o(x$fpl$dcheck1) for __fpl_dcheck_NaN1
    dcheck1.o(x$fpl$dcheck1) refers (Special) to usenofp.o(x$fpl$usenofp) for __I$use$fp
    dcheck1.o(x$fpl$dcheck1) refers to retnan.o(x$fpl$retnan) for __fpl_return_NaN
    retnan.o(x$fpl$retnan) refers (Special) to usenofp.o(x$fpl$usenofp) for __I$use$fp
    retnan.o(x$fpl$retnan) refers to trapv.o(x$fpl$trapveneer) for __fpl_cmpreturn
    trapv.o(x$fpl$trapveneer) refers (Special) to usenofp.o(x$fpl$usenofp) for __I$use$fp
    main.o(.ARM.exidx) refers to main.o(t._ZN4mbed19FunctionPointerArg1IvvE6attachEPFvvE) for t._ZN4mbed19FunctionPointerArg1IvvE6attachEPFvvE
    main.o(i._ZN4mbed9DigitalInC1E7PinName) refers to rt_memclr_w.o(.text) for __aeabi_memclr4
    main.o(i._ZN4mbed9DigitalInC1E7PinName) refers to gpio.o(i.gpio_init_in) for gpio_init_in
    main.o(.ARM.exidx) refers to main.o(i._ZN4mbed9DigitalInC1E7PinName) for i._ZN4mbed9DigitalInC1E7PinName
    matrix3x3.o(.ARM.exidx) refers to matrix3x3.o(i._ZN9Matrix3x3C1Efffffffff) for i._ZN9Matrix3x3C1Efffffffff
    quaternion.o(.ARM.exidx) refers to quaternion.o(i._ZN10QuaternionC1Effff) for i._ZN10QuaternionC1Effff
    quaternion.o(.ARM.exidx) refers to quaternion.o(i._ZN10Quaternion9GetVectorEv) for i._ZN10Quaternion9GetVectorEv
    quaternion.o(.ARM.exidx) refers to quaternion.o(i._ZN10QuaternionC1Ev) for i._ZN10QuaternionC1Ev
    physics.o(.ARM.exidx) refers to physics.o(i._Zmlf6Vector) for i._Zmlf6Vector
    physics.o(.ARM.exidx) refers to physics.o(i._Zml6Vectorf) for i._Zml6Vectorf
    physics.o(.ARM.exidx) refers to physics.o(i._Zpl6VectorS_) for i._Zpl6VectorS_
    physics.o(.ARM.exidx) refers to physics.o(i._Zmi6VectorS_) for i._Zmi6VectorS_
    physics.o(.ARM.exidx) refers to physics.o(i._Zeo6VectorS_) for i._Zeo6VectorS_
    physics.o(.ARM.exidx) refers to physics.o(i._Zdv6Vectorf) for i._Zdv6Vectorf
    physics.o(i._ZNK10QuaternioncoEv) refers to quaternion.o(i._ZN10QuaternionC1Effff) for Quaternion::Quaternion(float, float, float, float)
    physics.o(.ARM.exidx) refers to physics.o(i._ZNK10QuaternioncoEv) for i._ZNK10QuaternioncoEv
    physics.o(.ARM.exidx) refers to physics.o(i._Zml6VectorS_) for i._Zml6VectorS_
    physics.o(.ARM.exidx) refers to physics.o(i._ZSt4fabsf) for i._ZSt4fabsf
    physics.o(i._ZSt3powfi) refers to powf.o(i.__hardfp_powf) for __hardfp_powf
    physics.o(.ARM.exidx) refers to physics.o(i._ZSt3powfi) for i._ZSt3powfi
    physics.o(i._ZN10_RigidBodyC1Ev) refers to quaternion.o(i._ZN10QuaternionC1Ev) for Quaternion::Quaternion()
    physics.o(.ARM.exidx) refers to physics.o(i._ZN10_RigidBodyC1Ev) for i._ZN10_RigidBodyC1Ev
    physics.o(.ARM.exidx) refers to physics.o(i._ZN10_CollisionC1Ev) for i._ZN10_CollisionC1Ev
    ticker.o(.constdata__ZTVN4mbed6TickerE) refers to ticker.o(.constdata__ZTIN4mbed6TickerE) for typeinfo for mbed::Ticker
    ticker.o(.constdata__ZTVN4mbed6TickerE) refers to ticker.o(i._ZN4mbed6TickerD1Ev) for mbed::Ticker::~Ticker()
    ticker.o(.constdata__ZTVN4mbed6TickerE) refers to ticker.o(i._ZN4mbed6TickerD0Ev) for mbed::Ticker::~Ticker__deallocating()
    ticker.o(.constdata__ZTVN4mbed6TickerE) refers to ticker.o(i._ZN4mbed6Ticker7handlerEv) for mbed::Ticker::handler()
    ticker.o(i._ZN4mbed6TickerD1Ev) refers to ticker.o(i._ZN4mbed6Ticker6detachEv) for mbed::Ticker::detach()
    ticker.o(i._ZN4mbed6TickerD1Ev) refers to timerevent.o(i._ZN4mbed10TimerEventD2Ev) for mbed::TimerEvent::~TimerEvent__sub_object()
    ticker.o(i._ZN4mbed6TickerD1Ev) refers to ticker.o(.constdata__ZTVN4mbed6TickerE) for vtable for mbed::Ticker
    ticker.o(.ARM.exidx) refers to ticker.o(i._ZN4mbed6TickerD1Ev) for i._ZN4mbed6TickerD1Ev
    ticker.o(i._ZN4mbed6TickerD0Ev) refers to ticker.o(i._ZN4mbed6TickerD1Ev) for mbed::Ticker::~Ticker()
    ticker.o(i._ZN4mbed6TickerD0Ev) refers to delete.o(i._ZdlPv) for operator delete (void*)
    ticker.o(.ARM.exidx) refers to ticker.o(i._ZN4mbed6TickerD0Ev) for i._ZN4mbed6TickerD0Ev
    ticker.o(.constdata__ZTIN4mbed6TickerE) refers to lib_rtti_impl.o(.constdata__ZTVN10__cxxabiv120__si_class_type_infoE) for vtable for __cxxabiv1::__si_class_type_info
    ticker.o(.constdata__ZTIN4mbed6TickerE) refers to ticker.o(.constdata__ZTSN4mbed6TickerE) for typeinfo name for mbed::Ticker
    ticker.o(.constdata__ZTIN4mbed6TickerE) refers to timerevent.o(.constdata__ZTIN4mbed10TimerEventE) for typeinfo for mbed::TimerEvent
    timerevent.o(.constdata__ZTVN4mbed10TimerEventE) refers to timerevent.o(.constdata__ZTIN4mbed10TimerEventE) for typeinfo for mbed::TimerEvent
    timerevent.o(.constdata__ZTVN4mbed10TimerEventE) refers to timerevent.o(i._ZN4mbed10TimerEventD2Ev) for mbed::TimerEvent::~TimerEvent__sub_object()
    timerevent.o(.constdata__ZTVN4mbed10TimerEventE) refers to timerevent.o(i._ZN4mbed10TimerEventD0Ev) for mbed::TimerEvent::~TimerEvent__deallocating()
    timerevent.o(.constdata__ZTVN4mbed10TimerEventE) refers to pure_virt.o(i.__cxa_pure_virtual) for __cxa_pure_virtual
    timerevent.o(.constdata__ZTIN4mbed10TimerEventE) refers to lib_rtti_impl.o(.constdata__ZTVN10__cxxabiv117__class_type_infoE) for vtable for __cxxabiv1::__class_type_info
    timerevent.o(.constdata__ZTIN4mbed10TimerEventE) refers to timerevent.o(.constdata__ZTSN4mbed10TimerEventE) for typeinfo name for mbed::TimerEvent
    adafruit_gfx.o(.constdata__ZTV12Adafruit_GFX) refers to adafruit_gfx.o(.constdata__ZTI12Adafruit_GFX) for typeinfo for Adafruit_GFX
    adafruit_gfx.o(.constdata__ZTV12Adafruit_GFX) refers to pure_virt.o(i.__cxa_pure_virtual) for __cxa_pure_virtual
    adafruit_gfx.o(.constdata__ZTV12Adafruit_GFX) refers to adafruit_gfx.o(i._ZN12Adafruit_GFX8drawLineEsssst) for Adafruit_GFX::drawLine(short, short, short, short, unsigned short)
    adafruit_gfx.o(.constdata__ZTV12Adafruit_GFX) refers to adafruit_gfx.o(i._ZN12Adafruit_GFX13drawFastVLineEssst) for Adafruit_GFX::drawFastVLine(short, short, short, unsigned short)
    adafruit_gfx.o(.constdata__ZTV12Adafruit_GFX) refers to adafruit_gfx.o(i._ZN12Adafruit_GFX13drawFastHLineEssst) for Adafruit_GFX::drawFastHLine(short, short, short, unsigned short)
    adafruit_gfx.o(.constdata__ZTV12Adafruit_GFX) refers to adafruit_gfx.o(i._ZN12Adafruit_GFX8drawRectEsssst) for Adafruit_GFX::drawRect(short, short, short, short, unsigned short)
    adafruit_gfx.o(.constdata__ZTV12Adafruit_GFX) refers to adafruit_gfx.o(i._ZN12Adafruit_GFX8fillRectEsssst) for Adafruit_GFX::fillRect(short, short, short, short, unsigned short)
    adafruit_gfx.o(.constdata__ZTV12Adafruit_GFX) refers to adafruit_gfx.o(i._ZN12Adafruit_GFX10fillScreenEt) for Adafruit_GFX::fillScreen(unsigned short)
    adafruit_gfx.o(.constdata__ZTV12Adafruit_GFX) refers to adafruit_gfx.o(i._ZN12Adafruit_GFX13invertDisplayEb) for Adafruit_GFX::invertDisplay(bool)
    adafruit_gfx.o(.constdata__ZTV12Adafruit_GFX) refers to adafruit_gfx.o(i._ZN12Adafruit_GFX5writeEh) for Adafruit_GFX::write(unsigned char)
    adafruit_gfx.o(.constdata__ZTI12Adafruit_GFX) refers to lib_rtti_impl.o(.constdata__ZTVN10__cxxabiv117__class_type_infoE) for vtable for __cxxabiv1::__class_type_info
    adafruit_gfx.o(.constdata__ZTI12Adafruit_GFX) refers to adafruit_gfx.o(.constdata__ZTS12Adafruit_GFX) for typeinfo name for Adafruit_GFX
    display.o(.constdata__ZTV7Display) refers to display.o(.constdata__ZTI7Display) for typeinfo for Display
    display.o(.constdata__ZTV7Display) refers to stream.o(i._ZN4mbed6Stream5writeEPKvj) for mbed::Stream::write(const void*, unsigned)
    display.o(.constdata__ZTV7Display) refers to stream.o(i._ZN4mbed6Stream5closeEv) for mbed::Stream::close()
    display.o(.constdata__ZTV7Display) refers to stream.o(i._ZN4mbed6Stream4readEPvj) for mbed::Stream::read(void*, unsigned)
    display.o(.constdata__ZTV7Display) refers to stream.o(i._ZN4mbed6Stream6isattyEv) for mbed::Stream::isatty()
    display.o(.constdata__ZTV7Display) refers to stream.o(i._ZN4mbed6Stream5lseekEli) for mbed::Stream::lseek(long, int)
    display.o(.constdata__ZTV7Display) refers to stream.o(i._ZN4mbed6Stream5fsyncEv) for mbed::Stream::fsync()
    display.o(.constdata__ZTV7Display) refers to stream.o(i._ZN4mbed6Stream4flenEv) for mbed::Stream::flen()
    display.o(.constdata__ZTV7Display) refers to display.o(i._ZN7DisplayD1Ev) for Display::~Display()
    display.o(.constdata__ZTV7Display) refers to display.o(i._ZN7DisplayD0Ev) for Display::~Display__deallocating()
    display.o(.constdata__ZTV7Display) refers to display.o(i._ZN7Display5_putcEi) for Display::_putc(int)
    display.o(.constdata__ZTV7Display) refers to display.o(i._ZN7Display5_getcEv) for Display::_getc()
    display.o(.constdata__ZTV7Display) refers to display.o(i._ZThn4_N7DisplayD1Ev) for thunk{-4} to Display::~Display()
    display.o(.constdata__ZTV7Display) refers to display.o(i._ZThn4_N7DisplayD0Ev) for thunk{-4} to Display::~Display__deallocating()
    display.o(.constdata__ZTV7Display) refers to gfxfb.o(i._ZN5GFXFb9drawPixelEsst) for GFXFb::drawPixel(short, short, unsigned short)
    display.o(.constdata__ZTV7Display) refers to adafruit_gfx.o(i._ZN12Adafruit_GFX8drawLineEsssst) for Adafruit_GFX::drawLine(short, short, short, short, unsigned short)
    display.o(.constdata__ZTV7Display) refers to gfxfb.o(i._ZN5GFXFb13drawFastVLineEssst) for GFXFb::drawFastVLine(short, short, short, unsigned short)
    display.o(.constdata__ZTV7Display) refers to gfxfb.o(i._ZN5GFXFb13drawFastHLineEssst) for GFXFb::drawFastHLine(short, short, short, unsigned short)
    display.o(.constdata__ZTV7Display) refers to adafruit_gfx.o(i._ZN12Adafruit_GFX8drawRectEsssst) for Adafruit_GFX::drawRect(short, short, short, short, unsigned short)
    display.o(.constdata__ZTV7Display) refers to adafruit_gfx.o(i._ZN12Adafruit_GFX8fillRectEsssst) for Adafruit_GFX::fillRect(short, short, short, short, unsigned short)
    display.o(.constdata__ZTV7Display) refers to gfxfb.o(i._ZN5GFXFb10fillScreenEt) for GFXFb::fillScreen(unsigned short)
    display.o(.constdata__ZTV7Display) refers to adafruit_gfx.o(i._ZN12Adafruit_GFX13invertDisplayEb) for Adafruit_GFX::invertDisplay(bool)
    display.o(.constdata__ZTV7Display) refers to adafruit_gfx.o(i._ZN12Adafruit_GFX5writeEh) for Adafruit_GFX::write(unsigned char)
    display.o(.ARM.exidx) refers to display.o(i._ZN13LcdController6ConfigC1EiiiiiiiibbbbiNS_12BitsPerPixelEiNS_8LcdPanelEb) for i._ZN13LcdController6ConfigC1EiiiiiiiibbbbiNS_12BitsPerPixelEiNS_8LcdPanelEb
    display.o(.constdata__ZTI7Display) refers to lib_rtti_impl.o(.constdata__ZTVN10__cxxabiv121__vmi_class_type_infoE) for vtable for __cxxabiv1::__vmi_class_type_info
    display.o(.constdata__ZTI7Display) refers to display.o(.constdata__ZTS7Display) for typeinfo name for Display
    display.o(.constdata__ZTI7Display) refers to stream.o(.constdata__ZTIN4mbed6StreamE) for typeinfo for mbed::Stream
    display.o(.constdata__ZTI7Display) refers to gfxfb.o(.constdata__ZTI5GFXFb) for typeinfo for GFXFb
    stream.o(.constdata__ZTVN4mbed6StreamE) refers to stream.o(.constdata__ZTIN4mbed6StreamE) for typeinfo for mbed::Stream
    stream.o(.constdata__ZTVN4mbed6StreamE) refers to stream.o(i._ZN4mbed6Stream5writeEPKvj) for mbed::Stream::write(const void*, unsigned)
    stream.o(.constdata__ZTVN4mbed6StreamE) refers to stream.o(i._ZN4mbed6Stream5closeEv) for mbed::Stream::close()
    stream.o(.constdata__ZTVN4mbed6StreamE) refers to stream.o(i._ZN4mbed6Stream4readEPvj) for mbed::Stream::read(void*, unsigned)
    stream.o(.constdata__ZTVN4mbed6StreamE) refers to stream.o(i._ZN4mbed6Stream6isattyEv) for mbed::Stream::isatty()
    stream.o(.constdata__ZTVN4mbed6StreamE) refers to stream.o(i._ZN4mbed6Stream5lseekEli) for mbed::Stream::lseek(long, int)
    stream.o(.constdata__ZTVN4mbed6StreamE) refers to stream.o(i._ZN4mbed6Stream5fsyncEv) for mbed::Stream::fsync()
    stream.o(.constdata__ZTVN4mbed6StreamE) refers to stream.o(i._ZN4mbed6Stream4flenEv) for mbed::Stream::flen()
    stream.o(.constdata__ZTVN4mbed6StreamE) refers to stream.o(i._ZN4mbed6StreamD2Ev) for mbed::Stream::~Stream__sub_object()
    stream.o(.constdata__ZTVN4mbed6StreamE) refers to stream.o(i._ZN4mbed6StreamD0Ev) for mbed::Stream::~Stream__deallocating()
    stream.o(.constdata__ZTVN4mbed6StreamE) refers to pure_virt.o(i.__cxa_pure_virtual) for __cxa_pure_virtual
    stream.o(.constdata__ZTVN4mbed6StreamE) refers to stream.o(i._ZThn4_N4mbed6StreamD1Ev) for thunk{-4} to mbed::Stream::~Stream()
    stream.o(.constdata__ZTVN4mbed6StreamE) refers to stream.o(i._ZThn4_N4mbed6StreamD0Ev) for thunk{-4} to mbed::Stream::~Stream__deallocating()
    stream.o(.constdata__ZTIN4mbed6StreamE) refers to lib_rtti_impl.o(.constdata__ZTVN10__cxxabiv120__si_class_type_infoE) for vtable for __cxxabiv1::__si_class_type_info
    stream.o(.constdata__ZTIN4mbed6StreamE) refers to stream.o(.constdata__ZTSN4mbed6StreamE) for typeinfo name for mbed::Stream
    stream.o(.constdata__ZTIN4mbed6StreamE) refers to filelike.o(.constdata__ZTIN4mbed8FileLikeE) for typeinfo for mbed::FileLike
    ealcdboardgpio.o(.constdata__ZTV14EaLcdBoardGPIO) refers to ealcdboardgpio.o(.constdata__ZTI14EaLcdBoardGPIO) for typeinfo for EaLcdBoardGPIO
    ealcdboardgpio.o(.constdata__ZTV14EaLcdBoardGPIO) refers to ealcdboardgpio.o(i._ZN14EaLcdBoardGPIO15setWriteProtectEb) for EaLcdBoardGPIO::setWriteProtect(bool)
    ealcdboardgpio.o(.constdata__ZTV14EaLcdBoardGPIO) refers to ealcdboardgpio.o(i._ZN14EaLcdBoardGPIO12set3V3SignalEb) for EaLcdBoardGPIO::set3V3Signal(bool)
    ealcdboardgpio.o(.constdata__ZTV14EaLcdBoardGPIO) refers to ealcdboardgpio.o(i._ZN14EaLcdBoardGPIO11set5VSignalEb) for EaLcdBoardGPIO::set5VSignal(bool)
    ealcdboardgpio.o(.constdata__ZTV14EaLcdBoardGPIO) refers to ealcdboardgpio.o(i._ZN14EaLcdBoardGPIO22setDisplayEnableSignalEb) for EaLcdBoardGPIO::setDisplayEnableSignal(bool)
    ealcdboardgpio.o(.constdata__ZTV14EaLcdBoardGPIO) refers to ealcdboardgpio.o(i._ZN14EaLcdBoardGPIO20setBacklightContrastEj) for EaLcdBoardGPIO::setBacklightContrast(unsigned)
    ealcdboardgpio.o(i._ZN4mbed10DigitalOutaSEi) refers to assert.o(i.mbed_assert_internal) for mbed_assert_internal
    ealcdboardgpio.o(i._ZN4mbed10DigitalOutaSEi) refers to ealcdboardgpio.o(.conststring) for .conststring
    ealcdboardgpio.o(.ARM.exidx) refers to ealcdboardgpio.o(i._ZN4mbed10DigitalOutaSEi) for i._ZN4mbed10DigitalOutaSEi
    ealcdboardgpio.o(i._ZN4mbed10DigitalOutC1E7PinName) refers to rt_memclr_w.o(.text) for __aeabi_memclr4
    ealcdboardgpio.o(i._ZN4mbed10DigitalOutC1E7PinName) refers to gpio.o(i.gpio_init_out) for gpio_init_out
    ealcdboardgpio.o(.ARM.exidx) refers to ealcdboardgpio.o(i._ZN4mbed10DigitalOutC1E7PinName) for i._ZN4mbed10DigitalOutC1E7PinName
    ealcdboardgpio.o(.constdata__ZTI14EaLcdBoardGPIO) refers to lib_rtti_impl.o(.constdata__ZTVN10__cxxabiv120__si_class_type_infoE) for vtable for __cxxabiv1::__si_class_type_info
    ealcdboardgpio.o(.constdata__ZTI14EaLcdBoardGPIO) refers to ealcdboardgpio.o(.constdata__ZTS14EaLcdBoardGPIO) for typeinfo name for EaLcdBoardGPIO
    ealcdboardgpio.o(.constdata__ZTI14EaLcdBoardGPIO) refers to ealcdboard.o(.constdata__ZTI10EaLcdBoard) for typeinfo for EaLcdBoard
    ealcdboard.o(.constdata__ZTV10EaLcdBoard) refers to ealcdboard.o(.constdata__ZTI10EaLcdBoard) for typeinfo for EaLcdBoard
    ealcdboard.o(.constdata__ZTV10EaLcdBoard) refers to ealcdboard.o(i._ZN10EaLcdBoard15setWriteProtectEb) for EaLcdBoard::setWriteProtect(bool)
    ealcdboard.o(.constdata__ZTV10EaLcdBoard) refers to ealcdboard.o(i._ZN10EaLcdBoard12set3V3SignalEb) for EaLcdBoard::set3V3Signal(bool)
    ealcdboard.o(.constdata__ZTV10EaLcdBoard) refers to ealcdboard.o(i._ZN10EaLcdBoard11set5VSignalEb) for EaLcdBoard::set5VSignal(bool)
    ealcdboard.o(.constdata__ZTV10EaLcdBoard) refers to ealcdboard.o(i._ZN10EaLcdBoard22setDisplayEnableSignalEb) for EaLcdBoard::setDisplayEnableSignal(bool)
    ealcdboard.o(.constdata__ZTV10EaLcdBoard) refers to ealcdboard.o(i._ZN10EaLcdBoard20setBacklightContrastEj) for EaLcdBoard::setBacklightContrast(unsigned)
    ealcdboard.o(.constdata__ZTI10EaLcdBoard) refers to lib_rtti_impl.o(.constdata__ZTVN10__cxxabiv117__class_type_infoE) for vtable for __cxxabiv1::__class_type_info
    ealcdboard.o(.constdata__ZTI10EaLcdBoard) refers to ealcdboard.o(.constdata__ZTS10EaLcdBoard) for typeinfo name for EaLcdBoard
    gfxfb.o(.constdata__ZTV5GFXFb) refers to gfxfb.o(.constdata__ZTI5GFXFb) for typeinfo for GFXFb
    gfxfb.o(.constdata__ZTV5GFXFb) refers to gfxfb.o(i._ZN5GFXFb9drawPixelEsst) for GFXFb::drawPixel(short, short, unsigned short)
    gfxfb.o(.constdata__ZTV5GFXFb) refers to adafruit_gfx.o(i._ZN12Adafruit_GFX8drawLineEsssst) for Adafruit_GFX::drawLine(short, short, short, short, unsigned short)
    gfxfb.o(.constdata__ZTV5GFXFb) refers to gfxfb.o(i._ZN5GFXFb13drawFastVLineEssst) for GFXFb::drawFastVLine(short, short, short, unsigned short)
    gfxfb.o(.constdata__ZTV5GFXFb) refers to gfxfb.o(i._ZN5GFXFb13drawFastHLineEssst) for GFXFb::drawFastHLine(short, short, short, unsigned short)
    gfxfb.o(.constdata__ZTV5GFXFb) refers to adafruit_gfx.o(i._ZN12Adafruit_GFX8drawRectEsssst) for Adafruit_GFX::drawRect(short, short, short, short, unsigned short)
    gfxfb.o(.constdata__ZTV5GFXFb) refers to adafruit_gfx.o(i._ZN12Adafruit_GFX8fillRectEsssst) for Adafruit_GFX::fillRect(short, short, short, short, unsigned short)
    gfxfb.o(.constdata__ZTV5GFXFb) refers to gfxfb.o(i._ZN5GFXFb10fillScreenEt) for GFXFb::fillScreen(unsigned short)
    gfxfb.o(.constdata__ZTV5GFXFb) refers to adafruit_gfx.o(i._ZN12Adafruit_GFX13invertDisplayEb) for Adafruit_GFX::invertDisplay(bool)
    gfxfb.o(.constdata__ZTV5GFXFb) refers to adafruit_gfx.o(i._ZN12Adafruit_GFX5writeEh) for Adafruit_GFX::write(unsigned char)
    gfxfb.o(.constdata__ZTI5GFXFb) refers to lib_rtti_impl.o(.constdata__ZTVN10__cxxabiv120__si_class_type_infoE) for vtable for __cxxabiv1::__si_class_type_info
    gfxfb.o(.constdata__ZTI5GFXFb) refers to gfxfb.o(.constdata__ZTS5GFXFb) for typeinfo name for GFXFb
    gfxfb.o(.constdata__ZTI5GFXFb) refers to adafruit_gfx.o(.constdata__ZTI12Adafruit_GFX) for typeinfo for Adafruit_GFX
    filelike.o(.constdata__ZTVN4mbed8FileLikeE) refers to filelike.o(.constdata__ZTIN4mbed8FileLikeE) for typeinfo for mbed::FileLike
    filelike.o(.constdata__ZTVN4mbed8FileLikeE) refers to pure_virt.o(i.__cxa_pure_virtual) for __cxa_pure_virtual
    filelike.o(.constdata__ZTVN4mbed8FileLikeE) refers to filelike.o(i._ZN4mbed10FileHandle4flenEv) for mbed::FileHandle::flen()
    filelike.o(.constdata__ZTVN4mbed8FileLikeE) refers to filelike.o(i._ZN4mbed8FileLikeD2Ev) for mbed::FileLike::~FileLike__sub_object()
    filelike.o(.constdata__ZTVN4mbed8FileLikeE) refers to filelike.o(i._ZN4mbed8FileLikeD0Ev) for mbed::FileLike::~FileLike__deallocating()
    filelike.o(.constdata__ZTVN4mbed8FileLikeE) refers to filelike.o(i._ZThn4_N4mbed8FileLikeD1Ev) for thunk{-4} to mbed::FileLike::~FileLike()
    filelike.o(.constdata__ZTVN4mbed8FileLikeE) refers to filelike.o(i._ZThn4_N4mbed8FileLikeD0Ev) for thunk{-4} to mbed::FileLike::~FileLike__deallocating()
    filelike.o(.ARM.exidx) refers to filelike.o(i._ZN4mbed10FileHandle4flenEv) for i._ZN4mbed10FileHandle4flenEv
    filelike.o(.constdata__ZTIN4mbed8FileLikeE) refers to lib_rtti_impl.o(.constdata__ZTVN10__cxxabiv121__vmi_class_type_infoE) for vtable for __cxxabiv1::__vmi_class_type_info
    filelike.o(.constdata__ZTIN4mbed8FileLikeE) refers to filelike.o(.constdata__ZTSN4mbed8FileLikeE) for typeinfo name for mbed::FileLike
    filelike.o(.constdata__ZTIN4mbed8FileLikeE) refers to retarget.o(.constdata__ZTIN4mbed10FileHandleE) for typeinfo for mbed::FileHandle
    filelike.o(.constdata__ZTIN4mbed8FileLikeE) refers to filebase.o(.constdata__ZTIN4mbed8FileBaseE) for typeinfo for mbed::FileBase
    i2c_api.o(i.i2c_start) refers to i2c_api.o(i.i2c_conclr) for i2c_conclr
    i2c_api.o(i.i2c_start) refers to i2c_api.o(i.i2c_conset) for i2c_conset
    i2c_api.o(i.i2c_start) refers to i2c_api.o(i.i2c_wait_SI) for i2c_wait_SI
    i2c_api.o(i.i2c_start) refers to i2c_api.o(i.i2c_status) for i2c_status
    i2c_api.o(i.i2c_stop) refers to i2c_api.o(i.i2c_conset) for i2c_conset
    i2c_api.o(i.i2c_stop) refers to i2c_api.o(i.i2c_clear_SI) for i2c_clear_SI
    retarget.o(.constdata__ZTVN4mbed10FileHandleE) refers to retarget.o(.constdata__ZTIN4mbed10FileHandleE) for typeinfo for mbed::FileHandle
    retarget.o(.constdata__ZTVN4mbed10FileHandleE) refers to pure_virt.o(i.__cxa_pure_virtual) for __cxa_pure_virtual
    retarget.o(.constdata__ZTVN4mbed10FileHandleE) refers to filelike.o(i._ZN4mbed10FileHandle4flenEv) for mbed::FileHandle::flen()
    retarget.o(.constdata__ZTVN4mbed10FileHandleE) refers to retarget.o(i._ZN4mbed10FileHandleD2Ev) for mbed::FileHandle::~FileHandle__sub_object()
    retarget.o(.constdata__ZTVN4mbed10FileHandleE) refers to retarget.o(i._ZN4mbed10FileHandleD0Ev) for mbed::FileHandle::~FileHandle__deallocating()
    retarget.o(.constdata__ZTIN4mbed10FileHandleE) refers to lib_rtti_impl.o(.constdata__ZTVN10__cxxabiv117__class_type_infoE) for vtable for __cxxabiv1::__class_type_info
    retarget.o(.constdata__ZTIN4mbed10FileHandleE) refers to retarget.o(.constdata__ZTSN4mbed10FileHandleE) for typeinfo name for mbed::FileHandle
    filebase.o(.constdata__ZTVN4mbed8FileBaseE) refers to filebase.o(.constdata__ZTIN4mbed8FileBaseE) for typeinfo for mbed::FileBase
    filebase.o(.constdata__ZTVN4mbed8FileBaseE) refers to filebase.o(i._ZN4mbed8FileBaseD1Ev) for mbed::FileBase::~FileBase()
    filebase.o(.constdata__ZTVN4mbed8FileBaseE) refers to filebase.o(i._ZN4mbed8FileBaseD0Ev) for mbed::FileBase::~FileBase__deallocating()
    filebase.o(.constdata__ZTIN4mbed8FileBaseE) refers to lib_rtti_impl.o(.constdata__ZTVN10__cxxabiv117__class_type_infoE) for vtable for __cxxabiv1::__class_type_info
    filebase.o(.constdata__ZTIN4mbed8FileBaseE) refers to filebase.o(.constdata__ZTSN4mbed8FileBaseE) for typeinfo name for mbed::FileBase
    filesystemlike.o(.constdata__ZTVN4mbed14FileSystemLikeE) refers to filesystemlike.o(.constdata__ZTIN4mbed14FileSystemLikeE) for typeinfo for mbed::FileSystemLike
    filesystemlike.o(.constdata__ZTVN4mbed14FileSystemLikeE) refers to filesystemlike.o(i._ZN4mbed14FileSystemLikeD2Ev) for mbed::FileSystemLike::~FileSystemLike__sub_object()
    filesystemlike.o(.constdata__ZTVN4mbed14FileSystemLikeE) refers to filesystemlike.o(i._ZN4mbed14FileSystemLikeD0Ev) for mbed::FileSystemLike::~FileSystemLike__deallocating()
    filesystemlike.o(.constdata__ZTVN4mbed14FileSystemLikeE) refers to pure_virt.o(i.__cxa_pure_virtual) for __cxa_pure_virtual
    filesystemlike.o(.constdata__ZTVN4mbed14FileSystemLikeE) refers to filesystemlike.o(i._ZN4mbed14FileSystemLike6removeEPKc) for mbed::FileSystemLike::remove(const char*)
    filesystemlike.o(.constdata__ZTVN4mbed14FileSystemLikeE) refers to filesystemlike.o(i._ZN4mbed14FileSystemLike6renameEPKcS2_) for mbed::FileSystemLike::rename(const char*, const char*)
    filesystemlike.o(.constdata__ZTVN4mbed14FileSystemLikeE) refers to filesystemlike.o(i._ZN4mbed14FileSystemLike7opendirEPKc) for mbed::FileSystemLike::opendir(const char*)
    filesystemlike.o(.constdata__ZTVN4mbed14FileSystemLikeE) refers to filesystemlike.o(i._ZN4mbed14FileSystemLike5mkdirEPKci) for mbed::FileSystemLike::mkdir(const char*, int)
    filesystemlike.o(.ARM.exidx) refers to filesystemlike.o(i._ZN4mbed14FileSystemLike6removeEPKc) for i._ZN4mbed14FileSystemLike6removeEPKc
    filesystemlike.o(.ARM.exidx) refers to filesystemlike.o(i._ZN4mbed14FileSystemLike6renameEPKcS2_) for i._ZN4mbed14FileSystemLike6renameEPKcS2_
    filesystemlike.o(.ARM.exidx) refers to filesystemlike.o(i._ZN4mbed14FileSystemLike7opendirEPKc) for i._ZN4mbed14FileSystemLike7opendirEPKc
    filesystemlike.o(.ARM.exidx) refers to filesystemlike.o(i._ZN4mbed14FileSystemLike5mkdirEPKci) for i._ZN4mbed14FileSystemLike5mkdirEPKci
    filesystemlike.o(.constdata__ZTVN4mbed9DirHandleE) refers to filesystemlike.o(.constdata__ZTIN4mbed9DirHandleE) for typeinfo for mbed::DirHandle
    filesystemlike.o(.constdata__ZTVN4mbed9DirHandleE) refers to pure_virt.o(i.__cxa_pure_virtual) for __cxa_pure_virtual
    filesystemlike.o(.constdata__ZTVN4mbed9DirHandleE) refers to filesystemlike.o(i._ZN4mbed9DirHandle7telldirEv) for mbed::DirHandle::telldir()
    filesystemlike.o(.constdata__ZTVN4mbed9DirHandleE) refers to filesystemlike.o(i._ZN4mbed9DirHandle7seekdirEl) for mbed::DirHandle::seekdir(long)
    filesystemlike.o(.constdata__ZTVN4mbed9DirHandleE) refers to filesystemlike.o(i._ZN4mbed9DirHandleD2Ev) for mbed::DirHandle::~DirHandle__sub_object()
    filesystemlike.o(.constdata__ZTVN4mbed9DirHandleE) refers to filesystemlike.o(i._ZN4mbed9DirHandleD0Ev) for mbed::DirHandle::~DirHandle__deallocating()
    filesystemlike.o(.constdata__ZTVN4mbed13BaseDirHandleE) refers to filesystemlike.o(.constdata__ZTIN4mbed13BaseDirHandleE) for typeinfo for mbed::BaseDirHandle
    filesystemlike.o(.constdata__ZTVN4mbed13BaseDirHandleE) refers to filesystemlike.o(i._ZN4mbed13BaseDirHandle8closedirEv) for mbed::BaseDirHandle::closedir()
    filesystemlike.o(.constdata__ZTVN4mbed13BaseDirHandleE) refers to filesystemlike.o(i._ZN4mbed13BaseDirHandle7readdirEv) for mbed::BaseDirHandle::readdir()
    filesystemlike.o(.constdata__ZTVN4mbed13BaseDirHandleE) refers to filesystemlike.o(i._ZN4mbed13BaseDirHandle9rewinddirEv) for mbed::BaseDirHandle::rewinddir()
    filesystemlike.o(.constdata__ZTVN4mbed13BaseDirHandleE) refers to filesystemlike.o(i._ZN4mbed13BaseDirHandle7telldirEv) for mbed::BaseDirHandle::telldir()
    filesystemlike.o(.constdata__ZTVN4mbed13BaseDirHandleE) refers to filesystemlike.o(i._ZN4mbed13BaseDirHandle7seekdirEl) for mbed::BaseDirHandle::seekdir(long)
    filesystemlike.o(.constdata__ZTVN4mbed13BaseDirHandleE) refers to filesystemlike.o(i._ZN4mbed13BaseDirHandleD1Ev) for mbed::BaseDirHandle::~BaseDirHandle()
    filesystemlike.o(.constdata__ZTVN4mbed13BaseDirHandleE) refers to filesystemlike.o(i._ZN4mbed13BaseDirHandleD0Ev) for mbed::BaseDirHandle::~BaseDirHandle__deallocating()
    filesystemlike.o(.constdata__ZTIN4mbed14FileSystemLikeE) refers to lib_rtti_impl.o(.constdata__ZTVN10__cxxabiv120__si_class_type_infoE) for vtable for __cxxabiv1::__si_class_type_info
    filesystemlike.o(.constdata__ZTIN4mbed14FileSystemLikeE) refers to filesystemlike.o(.constdata__ZTSN4mbed14FileSystemLikeE) for typeinfo name for mbed::FileSystemLike
    filesystemlike.o(.constdata__ZTIN4mbed14FileSystemLikeE) refers to filebase.o(.constdata__ZTIN4mbed8FileBaseE) for typeinfo for mbed::FileBase
    filesystemlike.o(.constdata__ZTIN4mbed13BaseDirHandleE) refers to lib_rtti_impl.o(.constdata__ZTVN10__cxxabiv120__si_class_type_infoE) for vtable for __cxxabiv1::__si_class_type_info
    filesystemlike.o(.constdata__ZTIN4mbed13BaseDirHandleE) refers to filesystemlike.o(.constdata__ZTSN4mbed13BaseDirHandleE) for typeinfo name for mbed::BaseDirHandle
    filesystemlike.o(.constdata__ZTIN4mbed13BaseDirHandleE) refers to filesystemlike.o(.constdata__ZTIN4mbed9DirHandleE) for typeinfo for mbed::DirHandle
    filesystemlike.o(.constdata__ZTIN4mbed9DirHandleE) refers to lib_rtti_impl.o(.constdata__ZTVN10__cxxabiv117__class_type_infoE) for vtable for __cxxabiv1::__class_type_info
    filesystemlike.o(.constdata__ZTIN4mbed9DirHandleE) refers to filesystemlike.o(.constdata__ZTSN4mbed9DirHandleE) for typeinfo name for mbed::DirHandle
    filesystemlike.o(.ARM.exidx) refers to filesystemlike.o(i._ZN4mbed9DirHandle7telldirEv) for i._ZN4mbed9DirHandle7telldirEv
    filesystemlike.o(.ARM.exidx) refers to filesystemlike.o(i._ZN4mbed9DirHandle7seekdirEl) for i._ZN4mbed9DirHandle7seekdirEl
    filesystemlike.o(.ARM.exidx) refers to filesystemlike.o(i._ZN4mbed9DirHandleD2Ev) for i._ZN4mbed9DirHandleD2Ev
    filesystemlike.o(i._ZN4mbed9DirHandleD0Ev) refers to delete.o(i._ZdlPv) for operator delete (void*)
    filesystemlike.o(.ARM.exidx) refers to filesystemlike.o(i._ZN4mbed9DirHandleD0Ev) for i._ZN4mbed9DirHandleD0Ev
    filesystemlike.o(.ARM.exidx) refers to filesystemlike.o(i._ZN4mbed13BaseDirHandle8closedirEv) for i._ZN4mbed13BaseDirHandle8closedirEv
    filesystemlike.o(i._ZN4mbed13BaseDirHandle7readdirEv) refers to filebase.o(i._ZN4mbed8FileBase3getEi) for mbed::FileBase::get(int)
    filesystemlike.o(i._ZN4mbed13BaseDirHandle7readdirEv) refers to filebase.o(i._ZN4mbed8FileBase7getNameEv) for mbed::FileBase::getName()
    filesystemlike.o(i._ZN4mbed13BaseDirHandle7readdirEv) refers to strncpy.o(.text) for strncpy
    filesystemlike.o(.ARM.exidx) refers to filesystemlike.o(i._ZN4mbed13BaseDirHandle7readdirEv) for i._ZN4mbed13BaseDirHandle7readdirEv
    filesystemlike.o(.ARM.exidx) refers to filesystemlike.o(i._ZN4mbed13BaseDirHandle7telldirEv) for i._ZN4mbed13BaseDirHandle7telldirEv
    filesystemlike.o(.ARM.exidx) refers to filesystemlike.o(i._ZN4mbed13BaseDirHandle7seekdirEl) for i._ZN4mbed13BaseDirHandle7seekdirEl
    filesystemlike.o(.ARM.exidx) refers to filesystemlike.o(i._ZN4mbed13BaseDirHandle9rewinddirEv) for i._ZN4mbed13BaseDirHandle9rewinddirEv
    filesystemlike.o(.ARM.exidx) refers to filesystemlike.o(i._ZN4mbed13BaseDirHandleD1Ev) for i._ZN4mbed13BaseDirHandleD1Ev
    filesystemlike.o(i._ZN4mbed13BaseDirHandleD0Ev) refers to filesystemlike.o(i._ZN4mbed13BaseDirHandleD1Ev) for mbed::BaseDirHandle::~BaseDirHandle()
    filesystemlike.o(i._ZN4mbed13BaseDirHandleD0Ev) refers to delete.o(i._ZdlPv) for operator delete (void*)
    filesystemlike.o(.ARM.exidx) refers to filesystemlike.o(i._ZN4mbed13BaseDirHandleD0Ev) for i._ZN4mbed13BaseDirHandleD0Ev
    lib_rtti_impl.o(.constdata__ZTVN10__cxxabiv123__fundamental_type_infoE) refers to lib_rtti_impl.o(.constdata__ZTIN10__cxxabiv123__fundamental_type_infoE) for typeinfo for __cxxabiv1::__fundamental_type_info
    lib_rtti_impl.o(.constdata__ZTVN10__cxxabiv123__fundamental_type_infoE) refers to lib_rtti_impl.o(i._ZN10__cxxabiv123__fundamental_type_infoD1Ev) for __cxxabiv1::__fundamental_type_info::~__fundamental_type_info()
    lib_rtti_impl.o(.constdata__ZTVN10__cxxabiv123__fundamental_type_infoE) refers to lib_rtti_impl.o(i._ZN10__cxxabiv123__fundamental_type_infoD0Ev) for __cxxabiv1::__fundamental_type_info::~__fundamental_type_info__deallocating()
    lib_rtti_impl.o(.constdata__ZTVN10__cxxabiv117__array_type_infoE) refers to lib_rtti_impl.o(.constdata__ZTIN10__cxxabiv117__array_type_infoE) for typeinfo for __cxxabiv1::__array_type_info
    lib_rtti_impl.o(.constdata__ZTVN10__cxxabiv117__array_type_infoE) refers to lib_rtti_impl.o(i._ZN10__cxxabiv117__array_type_infoD1Ev) for __cxxabiv1::__array_type_info::~__array_type_info()
    lib_rtti_impl.o(.constdata__ZTVN10__cxxabiv117__array_type_infoE) refers to lib_rtti_impl.o(i._ZN10__cxxabiv117__array_type_infoD0Ev) for __cxxabiv1::__array_type_info::~__array_type_info__deallocating()
    lib_rtti_impl.o(.constdata__ZTVN10__cxxabiv120__function_type_infoE) refers to lib_rtti_impl.o(.constdata__ZTIN10__cxxabiv120__function_type_infoE) for typeinfo for __cxxabiv1::__function_type_info
    lib_rtti_impl.o(.constdata__ZTVN10__cxxabiv120__function_type_infoE) refers to lib_rtti_impl.o(i._ZN10__cxxabiv120__function_type_infoD1Ev) for __cxxabiv1::__function_type_info::~__function_type_info()
    lib_rtti_impl.o(.constdata__ZTVN10__cxxabiv120__function_type_infoE) refers to lib_rtti_impl.o(i._ZN10__cxxabiv120__function_type_infoD0Ev) for __cxxabiv1::__function_type_info::~__function_type_info__deallocating()
    lib_rtti_impl.o(.constdata__ZTVN10__cxxabiv116__enum_type_infoE) refers to lib_rtti_impl.o(.constdata__ZTIN10__cxxabiv116__enum_type_infoE) for typeinfo for __cxxabiv1::__enum_type_info
    lib_rtti_impl.o(.constdata__ZTVN10__cxxabiv116__enum_type_infoE) refers to lib_rtti_impl.o(i._ZN10__cxxabiv116__enum_type_infoD1Ev) for __cxxabiv1::__enum_type_info::~__enum_type_info()
    lib_rtti_impl.o(.constdata__ZTVN10__cxxabiv116__enum_type_infoE) refers to lib_rtti_impl.o(i._ZN10__cxxabiv116__enum_type_infoD0Ev) for __cxxabiv1::__enum_type_info::~__enum_type_info__deallocating()
    lib_rtti_impl.o(.constdata__ZTVN10__cxxabiv117__class_type_infoE) refers to lib_rtti_impl.o(.constdata__ZTIN10__cxxabiv117__class_type_infoE) for typeinfo for __cxxabiv1::__class_type_info
    lib_rtti_impl.o(.constdata__ZTVN10__cxxabiv117__class_type_infoE) refers to lib_rtti_impl.o(i._ZN10__cxxabiv117__class_type_infoD1Ev) for __cxxabiv1::__class_type_info::~__class_type_info()
    lib_rtti_impl.o(.constdata__ZTVN10__cxxabiv117__class_type_infoE) refers to lib_rtti_impl.o(i._ZN10__cxxabiv117__class_type_infoD0Ev) for __cxxabiv1::__class_type_info::~__class_type_info__deallocating()
    lib_rtti_impl.o(.constdata__ZTVN10__cxxabiv120__si_class_type_infoE) refers to lib_rtti_impl.o(.constdata__ZTIN10__cxxabiv120__si_class_type_infoE) for typeinfo for __cxxabiv1::__si_class_type_info
    lib_rtti_impl.o(.constdata__ZTVN10__cxxabiv120__si_class_type_infoE) refers to lib_rtti_impl.o(i._ZN10__cxxabiv120__si_class_type_infoD1Ev) for __cxxabiv1::__si_class_type_info::~__si_class_type_info()
    lib_rtti_impl.o(.constdata__ZTVN10__cxxabiv120__si_class_type_infoE) refers to lib_rtti_impl.o(i._ZN10__cxxabiv120__si_class_type_infoD0Ev) for __cxxabiv1::__si_class_type_info::~__si_class_type_info__deallocating()
    lib_rtti_impl.o(.constdata__ZTVN10__cxxabiv121__vmi_class_type_infoE) refers to lib_rtti_impl.o(.constdata__ZTIN10__cxxabiv121__vmi_class_type_infoE) for typeinfo for __cxxabiv1::__vmi_class_type_info
    lib_rtti_impl.o(.constdata__ZTVN10__cxxabiv121__vmi_class_type_infoE) refers to lib_rtti_impl.o(i._ZN10__cxxabiv121__vmi_class_type_infoD1Ev) for __cxxabiv1::__vmi_class_type_info::~__vmi_class_type_info()
    lib_rtti_impl.o(.constdata__ZTVN10__cxxabiv121__vmi_class_type_infoE) refers to lib_rtti_impl.o(i._ZN10__cxxabiv121__vmi_class_type_infoD0Ev) for __cxxabiv1::__vmi_class_type_info::~__vmi_class_type_info__deallocating()
    lib_rtti_impl.o(.constdata__ZTVN10__cxxabiv117__pbase_type_infoE) refers to lib_rtti_impl.o(.constdata__ZTIN10__cxxabiv117__pbase_type_infoE) for typeinfo for __cxxabiv1::__pbase_type_info
    lib_rtti_impl.o(.constdata__ZTVN10__cxxabiv117__pbase_type_infoE) refers to lib_rtti_impl.o(i._ZN10__cxxabiv117__pbase_type_infoD1Ev) for __cxxabiv1::__pbase_type_info::~__pbase_type_info()
    lib_rtti_impl.o(.constdata__ZTVN10__cxxabiv117__pbase_type_infoE) refers to lib_rtti_impl.o(i._ZN10__cxxabiv117__pbase_type_infoD0Ev) for __cxxabiv1::__pbase_type_info::~__pbase_type_info__deallocating()
    lib_rtti_impl.o(.constdata__ZTVN10__cxxabiv119__pointer_type_infoE) refers to lib_rtti_impl.o(.constdata__ZTIN10__cxxabiv119__pointer_type_infoE) for typeinfo for __cxxabiv1::__pointer_type_info
    lib_rtti_impl.o(.constdata__ZTVN10__cxxabiv119__pointer_type_infoE) refers to lib_rtti_impl.o(i._ZN10__cxxabiv119__pointer_type_infoD1Ev) for __cxxabiv1::__pointer_type_info::~__pointer_type_info()
    lib_rtti_impl.o(.constdata__ZTVN10__cxxabiv119__pointer_type_infoE) refers to lib_rtti_impl.o(i._ZN10__cxxabiv119__pointer_type_infoD0Ev) for __cxxabiv1::__pointer_type_info::~__pointer_type_info__deallocating()
    lib_rtti_impl.o(.constdata__ZTVN10__cxxabiv129__pointer_to_member_type_infoE) refers to lib_rtti_impl.o(.constdata__ZTIN10__cxxabiv129__pointer_to_member_type_infoE) for typeinfo for __cxxabiv1::__pointer_to_member_type_info
    lib_rtti_impl.o(.constdata__ZTVN10__cxxabiv129__pointer_to_member_type_infoE) refers to lib_rtti_impl.o(i._ZN10__cxxabiv129__pointer_to_member_type_infoD1Ev) for __cxxabiv1::__pointer_to_member_type_info::~__pointer_to_member_type_info()
    lib_rtti_impl.o(.constdata__ZTVN10__cxxabiv129__pointer_to_member_type_infoE) refers to lib_rtti_impl.o(i._ZN10__cxxabiv129__pointer_to_member_type_infoD0Ev) for __cxxabiv1::__pointer_to_member_type_info::~__pointer_to_member_type_info__deallocating()
    lib_rtti_impl.o(.ARM.exidx) refers to lib_rtti_impl.o(i._ZNSt9type_infodlEPv) for i._ZNSt9type_infodlEPv
    lib_rtti_impl.o(.constdata__ZTIN10__cxxabiv123__fundamental_type_infoE) refers to lib_rtti_impl.o(.constdata__ZTVN10__cxxabiv120__si_class_type_infoE) for vtable for __cxxabiv1::__si_class_type_info
    lib_rtti_impl.o(.constdata__ZTIN10__cxxabiv123__fundamental_type_infoE) refers to lib_rtti_impl.o(.constdata__ZTSN10__cxxabiv123__fundamental_type_infoE) for typeinfo name for __cxxabiv1::__fundamental_type_info
    lib_rtti_impl.o(.constdata__ZTIN10__cxxabiv123__fundamental_type_infoE) refers to type_info_dtor.o(.constdata__ZTISt9type_info) for typeinfo for std::type_info
    lib_rtti_impl.o(.constdata__ZTIN10__cxxabiv117__array_type_infoE) refers to lib_rtti_impl.o(.constdata__ZTVN10__cxxabiv120__si_class_type_infoE) for vtable for __cxxabiv1::__si_class_type_info
    lib_rtti_impl.o(.constdata__ZTIN10__cxxabiv117__array_type_infoE) refers to lib_rtti_impl.o(.constdata__ZTSN10__cxxabiv117__array_type_infoE) for typeinfo name for __cxxabiv1::__array_type_info
    lib_rtti_impl.o(.constdata__ZTIN10__cxxabiv117__array_type_infoE) refers to type_info_dtor.o(.constdata__ZTISt9type_info) for typeinfo for std::type_info
    lib_rtti_impl.o(.constdata__ZTIN10__cxxabiv120__function_type_infoE) refers to lib_rtti_impl.o(.constdata__ZTVN10__cxxabiv120__si_class_type_infoE) for vtable for __cxxabiv1::__si_class_type_info
    lib_rtti_impl.o(.constdata__ZTIN10__cxxabiv120__function_type_infoE) refers to lib_rtti_impl.o(.constdata__ZTSN10__cxxabiv120__function_type_infoE) for typeinfo name for __cxxabiv1::__function_type_info
    lib_rtti_impl.o(.constdata__ZTIN10__cxxabiv120__function_type_infoE) refers to type_info_dtor.o(.constdata__ZTISt9type_info) for typeinfo for std::type_info
    lib_rtti_impl.o(.constdata__ZTIN10__cxxabiv116__enum_type_infoE) refers to lib_rtti_impl.o(.constdata__ZTVN10__cxxabiv120__si_class_type_infoE) for vtable for __cxxabiv1::__si_class_type_info
    lib_rtti_impl.o(.constdata__ZTIN10__cxxabiv116__enum_type_infoE) refers to lib_rtti_impl.o(.constdata__ZTSN10__cxxabiv116__enum_type_infoE) for typeinfo name for __cxxabiv1::__enum_type_info
    lib_rtti_impl.o(.constdata__ZTIN10__cxxabiv116__enum_type_infoE) refers to type_info_dtor.o(.constdata__ZTISt9type_info) for typeinfo for std::type_info
    lib_rtti_impl.o(.constdata__ZTIN10__cxxabiv117__class_type_infoE) refers to lib_rtti_impl.o(.constdata__ZTVN10__cxxabiv120__si_class_type_infoE) for vtable for __cxxabiv1::__si_class_type_info
    lib_rtti_impl.o(.constdata__ZTIN10__cxxabiv117__class_type_infoE) refers to lib_rtti_impl.o(.constdata__ZTSN10__cxxabiv117__class_type_infoE) for typeinfo name for __cxxabiv1::__class_type_info
    lib_rtti_impl.o(.constdata__ZTIN10__cxxabiv117__class_type_infoE) refers to type_info_dtor.o(.constdata__ZTISt9type_info) for typeinfo for std::type_info
    lib_rtti_impl.o(.constdata__ZTIN10__cxxabiv120__si_class_type_infoE) refers to lib_rtti_impl.o(.constdata__ZTVN10__cxxabiv120__si_class_type_infoE) for vtable for __cxxabiv1::__si_class_type_info
    lib_rtti_impl.o(.constdata__ZTIN10__cxxabiv120__si_class_type_infoE) refers to lib_rtti_impl.o(.constdata__ZTSN10__cxxabiv120__si_class_type_infoE) for typeinfo name for __cxxabiv1::__si_class_type_info
    lib_rtti_impl.o(.constdata__ZTIN10__cxxabiv120__si_class_type_infoE) refers to lib_rtti_impl.o(.constdata__ZTIN10__cxxabiv117__class_type_infoE) for typeinfo for __cxxabiv1::__class_type_info
    lib_rtti_impl.o(.constdata__ZTIN10__cxxabiv121__vmi_class_type_infoE) refers to lib_rtti_impl.o(.constdata__ZTVN10__cxxabiv120__si_class_type_infoE) for vtable for __cxxabiv1::__si_class_type_info
    lib_rtti_impl.o(.constdata__ZTIN10__cxxabiv121__vmi_class_type_infoE) refers to lib_rtti_impl.o(.constdata__ZTSN10__cxxabiv121__vmi_class_type_infoE) for typeinfo name for __cxxabiv1::__vmi_class_type_info
    lib_rtti_impl.o(.constdata__ZTIN10__cxxabiv121__vmi_class_type_infoE) refers to lib_rtti_impl.o(.constdata__ZTIN10__cxxabiv117__class_type_infoE) for typeinfo for __cxxabiv1::__class_type_info
    lib_rtti_impl.o(.constdata__ZTIN10__cxxabiv117__pbase_type_infoE) refers to lib_rtti_impl.o(.constdata__ZTVN10__cxxabiv120__si_class_type_infoE) for vtable for __cxxabiv1::__si_class_type_info
    lib_rtti_impl.o(.constdata__ZTIN10__cxxabiv117__pbase_type_infoE) refers to lib_rtti_impl.o(.constdata__ZTSN10__cxxabiv117__pbase_type_infoE) for typeinfo name for __cxxabiv1::__pbase_type_info
    lib_rtti_impl.o(.constdata__ZTIN10__cxxabiv117__pbase_type_infoE) refers to type_info_dtor.o(.constdata__ZTISt9type_info) for typeinfo for std::type_info
    lib_rtti_impl.o(.constdata__ZTIN10__cxxabiv119__pointer_type_infoE) refers to lib_rtti_impl.o(.constdata__ZTVN10__cxxabiv120__si_class_type_infoE) for vtable for __cxxabiv1::__si_class_type_info
    lib_rtti_impl.o(.constdata__ZTIN10__cxxabiv119__pointer_type_infoE) refers to lib_rtti_impl.o(.constdata__ZTSN10__cxxabiv119__pointer_type_infoE) for typeinfo name for __cxxabiv1::__pointer_type_info
    lib_rtti_impl.o(.constdata__ZTIN10__cxxabiv119__pointer_type_infoE) refers to lib_rtti_impl.o(.constdata__ZTIN10__cxxabiv117__pbase_type_infoE) for typeinfo for __cxxabiv1::__pbase_type_info
    lib_rtti_impl.o(.constdata__ZTIN10__cxxabiv129__pointer_to_member_type_infoE) refers to lib_rtti_impl.o(.constdata__ZTVN10__cxxabiv120__si_class_type_infoE) for vtable for __cxxabiv1::__si_class_type_info
    lib_rtti_impl.o(.constdata__ZTIN10__cxxabiv129__pointer_to_member_type_infoE) refers to lib_rtti_impl.o(.constdata__ZTSN10__cxxabiv129__pointer_to_member_type_infoE) for typeinfo name for __cxxabiv1::__pointer_to_member_type_info
    lib_rtti_impl.o(.constdata__ZTIN10__cxxabiv129__pointer_to_member_type_infoE) refers to lib_rtti_impl.o(.constdata__ZTIN10__cxxabiv117__pbase_type_infoE) for typeinfo for __cxxabiv1::__pbase_type_info
    lib_rtti_impl.o(i.__ARM_common_noexcept_landing) refers to arm_exceptions_callterm.o(.text) for __cxa_call_terminate
    lib_rtti_impl.o(.ARM.exidx) refers to lib_rtti_impl.o(i.__ARM_common_noexcept_landing) for i.__ARM_common_noexcept_landing
    bad_alloc_dtor.o(.constdata__ZTVSt9bad_alloc) refers to bad_alloc_dtor.o(.constdata__ZTISt9bad_alloc) for typeinfo for std::bad_alloc
    bad_alloc_dtor.o(.constdata__ZTVSt9bad_alloc) refers to bad_alloc_dtor.o(i._ZNSt9bad_allocD1Ev) for std::bad_alloc::~bad_alloc()
    bad_alloc_dtor.o(.constdata__ZTVSt9bad_alloc) refers to bad_alloc_dtor.o(i._ZNSt9bad_allocD0Ev) for std::bad_alloc::~bad_alloc__deallocating()
    bad_alloc_dtor.o(.constdata__ZTVSt9bad_alloc) refers to bad_alloc_what.o(i._ZNKSt9bad_alloc4whatEv) for std::bad_alloc::what() const
    bad_alloc_dtor.o(.constdata__ZTISt9bad_alloc) refers to lib_rtti_impl.o(.constdata__ZTVN10__cxxabiv120__si_class_type_infoE) for vtable for __cxxabiv1::__si_class_type_info
    bad_alloc_dtor.o(.constdata__ZTISt9bad_alloc) refers to bad_alloc_dtor.o(.constdata__ZTSSt9bad_alloc) for typeinfo name for std::bad_alloc
    bad_alloc_dtor.o(.constdata__ZTISt9bad_alloc) refers to exception_dtor.o(.constdata__ZTISt9exception) for typeinfo for std::exception
    type_info_dtor.o(.constdata__ZTVSt9type_info) refers to type_info_dtor.o(.constdata__ZTISt9type_info) for typeinfo for std::type_info
    type_info_dtor.o(.constdata__ZTVSt9type_info) refers to type_info_dtor.o(i._ZNSt9type_infoD1Ev) for std::type_info::~type_info()
    type_info_dtor.o(.constdata__ZTVSt9type_info) refers to type_info_dtor.o(i._ZNSt9type_infoD0Ev) for std::type_info::~type_info__deallocating()
    type_info_dtor.o(.constdata__ZTISt9type_info) refers to lib_rtti_impl.o(.constdata__ZTVN10__cxxabiv117__class_type_infoE) for vtable for __cxxabiv1::__class_type_info
    type_info_dtor.o(.constdata__ZTISt9type_info) refers to type_info_dtor.o(.constdata__ZTSSt9type_info) for typeinfo name for std::type_info
    exception_dtor.o(.constdata__ZTVSt9exception) refers to exception_dtor.o(.constdata__ZTISt9exception) for typeinfo for std::exception
    exception_dtor.o(.constdata__ZTVSt9exception) refers to exception_dtor.o(i._ZNSt9exceptionD1Ev) for std::exception::~exception()
    exception_dtor.o(.constdata__ZTVSt9exception) refers to exception_dtor.o(i._ZNSt9exceptionD0Ev) for std::exception::~exception__deallocating()
    exception_dtor.o(.constdata__ZTVSt9exception) refers to exception_what.o(i._ZNKSt9exception4whatEv) for std::exception::what() const
    exception_dtor.o(.constdata__ZTISt9exception) refers to lib_rtti_impl.o(.constdata__ZTVN10__cxxabiv117__class_type_infoE) for vtable for __cxxabiv1::__class_type_info
    exception_dtor.o(.constdata__ZTISt9exception) refers to exception_dtor.o(.constdata__ZTSSt9exception) for typeinfo name for std::exception


==============================================================================

Removing Unused input sections from the image.

    Removing main.o(.rev16_text), (4 bytes).
    Removing main.o(.revsh_text), (4 bytes).
    Removing main.o(i._Z13jsPrsdAndRlsd7btnId_t), (60 bytes).
    Removing main.o(i._Z7accInitR7MMA7455), (32 bytes).
    Removing main.o(.ARM.exidx), (8 bytes).
    Removing main.o(.ARM.exidx), (8 bytes).
    Removing main.o(.ARM.exidx), (8 bytes).
    Removing main.o(.ARM.exidx), (8 bytes).
    Removing main.o(.ARM.exidx), (8 bytes).
    Removing main.o(.ARM.exidx), (8 bytes).
    Removing matrix3x3.o(i._Z24MakeMatrixFromQuaternion10Quaternion), (520 bytes).
    Removing matrix3x3.o(i._Zdv9Matrix3x3f), (178 bytes).
    Removing matrix3x3.o(i._ZmI9Matrix3x3S_), (162 bytes).
    Removing matrix3x3.o(i._Zml6Vector9Matrix3x3), (152 bytes).
    Removing matrix3x3.o(i._Zml9Matrix3x36Vector), (152 bytes).
    Removing matrix3x3.o(i._Zml9Matrix3x3S_), (378 bytes).
    Removing matrix3x3.o(i._Zml9Matrix3x3f), (142 bytes).
    Removing matrix3x3.o(i._Zmlf9Matrix3x3), (142 bytes).
    Removing matrix3x3.o(i._ZpL9Matrix3x3S_), (162 bytes).
    Removing matrix3x3.o(.ARM.exidx), (8 bytes).
    Removing matrix3x3.o(.ARM.exidx), (8 bytes).
    Removing matrix3x3.o(.ARM.exidx), (8 bytes).
    Removing matrix3x3.o(.ARM.exidx), (8 bytes).
    Removing matrix3x3.o(.ARM.exidx), (8 bytes).
    Removing matrix3x3.o(.ARM.exidx), (8 bytes).
    Removing matrix3x3.o(.ARM.exidx), (8 bytes).
    Removing matrix3x3.o(.ARM.exidx), (8 bytes).
    Removing matrix3x3.o(.ARM.exidx), (8 bytes).
    Removing quaternion.o(i._Z16DegreesToRadiansf), (84 bytes).
    Removing quaternion.o(i._Z16RadiansToDegreesf), (76 bytes).
    Removing quaternion.o(i._Z7QRotate10QuaternionS_), (216 bytes).
    Removing quaternion.o(i._Z8QGetAxis10Quaternion), (172 bytes).
    Removing quaternion.o(i._Z9QGetAngle10Quaternion), (36 bytes).
    Removing quaternion.o(i._ZN10Quaternion20MakeEulerAnglesFromQES_), (804 bytes).
    Removing quaternion.o(i._ZN10Quaternion20MakeQFromEulerAnglesEfff), (716 bytes).
    Removing quaternion.o(i._ZN10Quaternion8QVRotateES_6Vector), (150 bytes).
    Removing quaternion.o(i._Zdv10Quaternionf), (112 bytes).
    Removing quaternion.o(i._ZmI10QuaternionS_), (98 bytes).
    Removing quaternion.o(i._Zml10Quaternion6Vector), (194 bytes).
    Removing quaternion.o(i._Zml10QuaternionS_), (242 bytes).
    Removing quaternion.o(i._Zml10Quaternionf), (96 bytes).
    Removing quaternion.o(i._Zml6Vector10Quaternion), (194 bytes).
    Removing quaternion.o(i._Zmlf10Quaternion), (96 bytes).
    Removing quaternion.o(i._Zpl10QuaternionS_), (98 bytes).
    Removing quaternion.o(.ARM.exidx), (8 bytes).
    Removing quaternion.o(.ARM.exidx), (8 bytes).
    Removing quaternion.o(.ARM.exidx), (8 bytes).
    Removing quaternion.o(.ARM.exidx), (8 bytes).
    Removing quaternion.o(.ARM.exidx), (8 bytes).
    Removing quaternion.o(.ARM.exidx), (8 bytes).
    Removing quaternion.o(.ARM.exidx), (8 bytes).
    Removing quaternion.o(.ARM.exidx), (8 bytes).
    Removing quaternion.o(.ARM.exidx), (8 bytes).
    Removing quaternion.o(.ARM.exidx), (8 bytes).
    Removing quaternion.o(.ARM.exidx), (8 bytes).
    Removing quaternion.o(.ARM.exidx), (8 bytes).
    Removing quaternion.o(.ARM.exidx), (8 bytes).
    Removing quaternion.o(.ARM.exidx), (8 bytes).
    Removing quaternion.o(.ARM.exidx), (8 bytes).
    Removing quaternion.o(.ARM.exidx), (8 bytes).
    Removing physics.o(i._Z14StepSimulationf), (1524 bytes).
    Removing physics.o(i._Z16CalcObjectForcesv), (3240 bytes).
    Removing physics.o(i._Z16ResolveCollsionsv), (5684 bytes).
    Removing physics.o(i._Z17InitialiseObjectsi), (1500 bytes).
    Removing physics.o(i._Z18CheckForCollisionsv), (1132 bytes).
    Removing physics.o(i._Z18FlushCollisionDatav), (116 bytes).
    Removing physics.o(i._Z24CheckGroundPlaneContactsP10_Collisioni), (992 bytes).
    Removing physics.o(i._Z24CollisionRecordedAlreadyii), (72 bytes).
    Removing physics.o(i._Z26CheckGroundPlaneCollisionsP10_Collisioni), (612 bytes).
    Removing physics.o(.ARM.exidx), (8 bytes).
    Removing physics.o(.ARM.exidx), (8 bytes).
    Removing physics.o(.ARM.exidx), (8 bytes).
    Removing physics.o(.ARM.exidx), (8 bytes).
    Removing physics.o(.ARM.exidx), (8 bytes).
    Removing physics.o(.ARM.exidx), (8 bytes).
    Removing physics.o(.ARM.exidx), (8 bytes).
    Removing physics.o(.ARM.exidx), (8 bytes).
    Removing physics.o(.ARM.exidx), (8 bytes).
    Removing physics.o(.ARM.exidx), (8 bytes).
    Removing physics.o(.data), (4 bytes).
    Removing cmsis_nvic.o(.rev16_text), (4 bytes).
    Removing cmsis_nvic.o(.revsh_text), (4 bytes).
    Removing cmsis_nvic.o(i.NVIC_GetVector), (20 bytes).
    Removing system_lpc407x_8x_177x_8x.o(.rev16_text), (4 bytes).
    Removing system_lpc407x_8x_177x_8x.o(.revsh_text), (4 bytes).
    Removing sys.o(.ARM.exidx), (8 bytes).
    Removing sys_helper.o(i.__reserved_stack_size), (4 bytes).
    Removing sys_helper.o(.ARM.exidx), (8 bytes).
    Removing gpio.o(.rev16_text), (4 bytes).
    Removing gpio.o(.revsh_text), (4 bytes).
    Removing gpio.o(i.gpio_init_inout), (56 bytes).
    Removing ticker.o(.rev16_text), (4 bytes).
    Removing ticker.o(.revsh_text), (4 bytes).
    Removing ticker.o(.ARM.exidx), (8 bytes).
    Removing ticker.o(.ARM.exidx), (8 bytes).
    Removing ticker.o(.ARM.exidx), (8 bytes).
    Removing timerevent.o(.rev16_text), (4 bytes).
    Removing timerevent.o(.revsh_text), (4 bytes).
    Removing timerevent.o(i._ZN4mbed10TimerEventC2EPK13ticker_data_t), (40 bytes).
    Removing timerevent.o(i._ZN4mbed10TimerEventD0Ev), (18 bytes).
    Removing timerevent.o(.ARM.exidx), (8 bytes).
    Removing timerevent.o(.ARM.exidx), (8 bytes).
    Removing timerevent.o(.ARM.exidx), (8 bytes).
    Removing timerevent.o(.ARM.exidx), (8 bytes).
    Removing timerevent.o(.ARM.exidx), (8 bytes).
    Removing timerevent.o(.ARM.exidx), (8 bytes).
    Removing timerevent.o(.ARM.exidx), (8 bytes).
    Removing analogin_api.o(.rev16_text), (4 bytes).
    Removing analogin_api.o(.revsh_text), (4 bytes).
    Removing analogin_api.o(i.adc_read), (80 bytes).
    Removing analogin_api.o(i.adc_read_u32), (58 bytes).
    Removing analogin_api.o(i.analogin_read), (40 bytes).
    Removing analogin_api.o(i.analogin_read_u16), (24 bytes).
    Removing analogin_api.o(i.order), (20 bytes).
    Removing adafruit_gfx.o(.rev16_text), (4 bytes).
    Removing adafruit_gfx.o(.revsh_text), (4 bytes).
    Removing adafruit_gfx.o(i._ZN12Adafruit_GFX10drawBitmapEssPKhsst), (110 bytes).
    Removing adafruit_gfx.o(i._ZN12Adafruit_GFX10drawCircleEssst), (356 bytes).
    Removing adafruit_gfx.o(i._ZN12Adafruit_GFX10fillCircleEssst), (64 bytes).
    Removing adafruit_gfx.o(i._ZN12Adafruit_GFX10fillScreenEt), (32 bytes).
    Removing adafruit_gfx.o(i._ZN12Adafruit_GFX11getRotationEv), (6 bytes).
    Removing adafruit_gfx.o(i._ZN12Adafruit_GFX11setRotationEh), (52 bytes).
    Removing adafruit_gfx.o(i._ZN12Adafruit_GFX11setTextSizeEh), (14 bytes).
    Removing adafruit_gfx.o(i._ZN12Adafruit_GFX11setTextWrapEb), (4 bytes).
    Removing adafruit_gfx.o(i._ZN12Adafruit_GFX12drawTriangleEsssssst), (86 bytes).
    Removing adafruit_gfx.o(i._ZN12Adafruit_GFX12fillTriangleEsssssst), (440 bytes).
    Removing adafruit_gfx.o(i._ZN12Adafruit_GFX12setTextColorEt), (6 bytes).
    Removing adafruit_gfx.o(i._ZN12Adafruit_GFX13drawFastHLineEssst), (44 bytes).
    Removing adafruit_gfx.o(i._ZN12Adafruit_GFX13drawRoundRectEssssst), (258 bytes).
    Removing adafruit_gfx.o(i._ZN12Adafruit_GFX13fillRoundRectEssssst), (126 bytes).
    Removing adafruit_gfx.o(i._ZN12Adafruit_GFX13invertDisplayEb), (2 bytes).
    Removing adafruit_gfx.o(i._ZN12Adafruit_GFX16drawCircleHelperEsssht), (298 bytes).
    Removing adafruit_gfx.o(i._ZN12Adafruit_GFX16fillCircleHelperEssshst), (246 bytes).
    Removing adafruit_gfx.o(i._ZN12Adafruit_GFX8drawRectEsssst), (104 bytes).
    Removing adafruit_gfx.o(i._ZN12Adafruit_GFX9setCursorEss), (6 bytes).
    Removing adafruit_gfx.o(.ARM.exidx), (8 bytes).
    Removing adafruit_gfx.o(.ARM.exidx), (8 bytes).
    Removing adafruit_gfx.o(.ARM.exidx), (8 bytes).
    Removing adafruit_gfx.o(.ARM.exidx), (8 bytes).
    Removing adafruit_gfx.o(.ARM.exidx), (8 bytes).
    Removing adafruit_gfx.o(.ARM.exidx), (8 bytes).
    Removing adafruit_gfx.o(.ARM.exidx), (8 bytes).
    Removing adafruit_gfx.o(.ARM.exidx), (8 bytes).
    Removing adafruit_gfx.o(.ARM.exidx), (8 bytes).
    Removing adafruit_gfx.o(.ARM.exidx), (8 bytes).
    Removing adafruit_gfx.o(.ARM.exidx), (8 bytes).
    Removing adafruit_gfx.o(.ARM.exidx), (8 bytes).
    Removing adafruit_gfx.o(.ARM.exidx), (8 bytes).
    Removing adafruit_gfx.o(.ARM.exidx), (8 bytes).
    Removing adafruit_gfx.o(.ARM.exidx), (8 bytes).
    Removing adafruit_gfx.o(.ARM.exidx), (8 bytes).
    Removing adafruit_gfx.o(.ARM.exidx), (8 bytes).
    Removing adafruit_gfx.o(.ARM.exidx), (8 bytes).
    Removing adafruit_gfx.o(.ARM.exidx), (8 bytes).
    Removing adafruit_gfx.o(.ARM.exidx), (8 bytes).
    Removing adafruit_gfx.o(.ARM.exidx), (8 bytes).
    Removing adafruit_gfx.o(.ARM.exidx), (8 bytes).
    Removing adafruit_gfx.o(.ARM.exidx), (8 bytes).
    Removing adafruit_gfx.o(.ARM.exidx), (8 bytes).
    Removing adafruit_gfx.o(.ARM.exidx), (8 bytes).
    Removing adafruit_gfx.o(.ARM.exidx), (8 bytes).
    Removing adafruit_gfx.o(.ARM.exidx), (8 bytes).
    Removing adafruit_gfx.o(.ARM.exidx), (8 bytes).
    Removing mma7455.o(.rev16_text), (4 bytes).
    Removing mma7455.o(.revsh_text), (4 bytes).
    Removing mma7455.o(i._ZN7MMA745514getModeControlEv), (66 bytes).
    Removing mma7455.o(i._ZN7MMA745514setModeControlEh), (52 bytes).
    Removing mma7455.o(i._ZN7MMA745521getCalibrationOffsetsERiS0_S0_), (20 bytes).
    Removing mma7455.o(i._ZN7MMA745521setCalibrationOffsetsEiii), (14 bytes).
    Removing mma7455.o(i._ZN7MMA74554readERiS0_S0_), (242 bytes).
    Removing mma7455.o(i._ZN7MMA74557setModeENS_4ModeE), (62 bytes).
    Removing mma7455.o(i._ZN7MMA74558setRangeENS_5RangeE), (64 bytes).
    Removing mma7455.o(i._ZN7MMA74559calibrateEv), (170 bytes).
    Removing mma7455.o(i._ZN7MMA74559getStatusEv), (66 bytes).
    Removing mma7455.o(.ARM.exidx), (8 bytes).
    Removing mma7455.o(.ARM.exidx), (8 bytes).
    Removing mma7455.o(.ARM.exidx), (8 bytes).
    Removing mma7455.o(.ARM.exidx), (8 bytes).
    Removing mma7455.o(.ARM.exidx), (8 bytes).
    Removing mma7455.o(.ARM.exidx), (8 bytes).
    Removing mma7455.o(.ARM.exidx), (8 bytes).
    Removing mma7455.o(.ARM.exidx), (8 bytes).
    Removing mma7455.o(.ARM.exidx), (8 bytes).
    Removing mma7455.o(.ARM.exidx), (8 bytes).
    Removing lm75b.o(.rev16_text), (4 bytes).
    Removing lm75b.o(.revsh_text), (4 bytes).
    Removing lm75b.o(i._ZN5LM75B10osPolarityENS_10OSPolarityE), (42 bytes).
    Removing lm75b.o(i._ZN5LM75B10osPolarityEv), (28 bytes).
    Removing lm75b.o(i._ZN5LM75B12osFaultQueueENS_12OSFaultQueueE), (60 bytes).
    Removing lm75b.o(i._ZN5LM75B12osFaultQueueEv), (66 bytes).
    Removing lm75b.o(i._ZN5LM75B19readAlertTempHelperEc), (80 bytes).
    Removing lm75b.o(i._ZN5LM75B20writeAlertTempHelperEcf), (148 bytes).
    Removing lm75b.o(i._ZN5LM75B4openEv), (30 bytes).
    Removing lm75b.o(i._ZN5LM75B4tempEv), (80 bytes).
    Removing lm75b.o(i._ZN5LM75B5read8Ec), (46 bytes).
    Removing lm75b.o(i._ZN5LM75B6osModeENS_6OSModeE), (42 bytes).
    Removing lm75b.o(i._ZN5LM75B6osModeEv), (28 bytes).
    Removing lm75b.o(i._ZN5LM75B6read16Ec), (54 bytes).
    Removing lm75b.o(i._ZN5LM75B6write8Ecc), (34 bytes).
    Removing lm75b.o(i._ZN5LM75B7write16Ect), (42 bytes).
    Removing lm75b.o(i._ZN5LM75B9alertHystEf), (30 bytes).
    Removing lm75b.o(i._ZN5LM75B9alertHystEv), (14 bytes).
    Removing lm75b.o(i._ZN5LM75B9alertTempEf), (30 bytes).
    Removing lm75b.o(i._ZN5LM75B9alertTempEv), (14 bytes).
    Removing lm75b.o(i._ZN5LM75B9powerModeENS_9PowerModeE), (42 bytes).
    Removing lm75b.o(i._ZN5LM75B9powerModeEv), (28 bytes).
    Removing lm75b.o(i._ZN5LM75BcvfEv), (12 bytes).
    Removing lm75b.o(.ARM.exidx), (8 bytes).
    Removing lm75b.o(.ARM.exidx), (8 bytes).
    Removing lm75b.o(.ARM.exidx), (8 bytes).
    Removing lm75b.o(.ARM.exidx), (8 bytes).
    Removing lm75b.o(.ARM.exidx), (8 bytes).
    Removing lm75b.o(.ARM.exidx), (8 bytes).
    Removing lm75b.o(.ARM.exidx), (8 bytes).
    Removing lm75b.o(.ARM.exidx), (8 bytes).
    Removing lm75b.o(.ARM.exidx), (8 bytes).
    Removing lm75b.o(.ARM.exidx), (8 bytes).
    Removing lm75b.o(.ARM.exidx), (8 bytes).
    Removing lm75b.o(.ARM.exidx), (8 bytes).
    Removing lm75b.o(.ARM.exidx), (8 bytes).
    Removing lm75b.o(.ARM.exidx), (8 bytes).
    Removing lm75b.o(.ARM.exidx), (8 bytes).
    Removing lm75b.o(.ARM.exidx), (8 bytes).
    Removing lm75b.o(.ARM.exidx), (8 bytes).
    Removing lm75b.o(.ARM.exidx), (8 bytes).
    Removing lm75b.o(.ARM.exidx), (8 bytes).
    Removing lm75b.o(.ARM.exidx), (8 bytes).
    Removing lm75b.o(.ARM.exidx), (8 bytes).
    Removing lm75b.o(.ARM.exidx), (8 bytes).
    Removing display.o(.rev16_text), (4 bytes).
    Removing display.o(.revsh_text), (4 bytes).
    Removing display.o(i._ZN7Display5_getcEv), (8 bytes).
    Removing display.o(i._ZN7Display6initOkEv), (16 bytes).
    Removing display.o(i._ZN7DisplayD0Ev), (18 bytes).
    Removing display.o(i._ZN7DisplayD1Ev), (52 bytes).
    Removing display.o(i._ZThn4_N7DisplayD0Ev), (14 bytes).
    Removing display.o(i._ZThn4_N7DisplayD1Ev), (14 bytes).
    Removing display.o(.ARM.exidx), (8 bytes).
    Removing display.o(.ARM.exidx), (8 bytes).
    Removing display.o(.ARM.exidx), (8 bytes).
    Removing display.o(.ARM.exidx), (8 bytes).
    Removing display.o(.ARM.exidx), (8 bytes).
    Removing display.o(.ARM.exidx), (8 bytes).
    Removing display.o(.ARM.exidx), (8 bytes).
    Removing display.o(.ARM.exidx), (8 bytes).
    Removing display.o(.ARM.exidx), (8 bytes).
    Removing error.o(.rev16_text), (4 bytes).
    Removing error.o(.revsh_text), (4 bytes).
    Removing pinmap_common.o(.rev16_text), (4 bytes).
    Removing pinmap_common.o(.revsh_text), (4 bytes).
    Removing pinmap_common.o(i.pinmap_find_function), (32 bytes).
    Removing pinmap_common.o(i.pinmap_function), (76 bytes).
    Removing ticker_api.o(.rev16_text), (4 bytes).
    Removing ticker_api.o(.revsh_text), (4 bytes).
    Removing ticker_api.o(i.ticker_get_next_timestamp), (26 bytes).
    Removing us_ticker_api.o(.rev16_text), (4 bytes).
    Removing us_ticker_api.o(.revsh_text), (4 bytes).
    Removing wait_api.o(.rev16_text), (4 bytes).
    Removing wait_api.o(.revsh_text), (4 bytes).
    Removing i2c.o(.rev16_text), (4 bytes).
    Removing i2c.o(.revsh_text), (4 bytes).
    Removing i2c.o(i._ZN4mbed3I2C4readEi), (28 bytes).
    Removing i2c.o(i._ZN4mbed3I2C4stopEv), (12 bytes).
    Removing i2c.o(i._ZN4mbed3I2C5startEv), (12 bytes).
    Removing i2c.o(i._ZN4mbed3I2C5writeEi), (16 bytes).
    Removing i2c.o(.ARM.exidx), (8 bytes).
    Removing i2c.o(.ARM.exidx), (8 bytes).
    Removing i2c.o(.ARM.exidx), (8 bytes).
    Removing i2c.o(.ARM.exidx), (8 bytes).
    Removing i2c.o(.ARM.exidx), (8 bytes).
    Removing i2c.o(.ARM.exidx), (8 bytes).
    Removing i2c.o(.ARM.exidx), (8 bytes).
    Removing i2c.o(.ARM.exidx), (8 bytes).
    Removing i2c.o(.ARM.exidx), (8 bytes).
    Removing stream.o(.rev16_text), (4 bytes).
    Removing stream.o(.revsh_text), (4 bytes).
    Removing stream.o(i._ZN4mbed6Stream4getcEv), (18 bytes).
    Removing stream.o(i._ZN4mbed6Stream4getsEPci), (26 bytes).
    Removing stream.o(i._ZN4mbed6Stream4putcEi), (22 bytes).
    Removing stream.o(i._ZN4mbed6Stream4putsEPKc), (22 bytes).
    Removing stream.o(i._ZN4mbed6Stream4readEPvj), (54 bytes).
    Removing stream.o(i._ZN4mbed6Stream5fsyncEv), (6 bytes).
    Removing stream.o(i._ZN4mbed6Stream5scanfEPKcz), (40 bytes).
    Removing stream.o(i._ZN4mbed6Stream6printfEPKcz), (40 bytes).
    Removing stream.o(i._ZN4mbed6StreamD0Ev), (18 bytes).
    Removing stream.o(i._ZN4mbed6StreamD2Ev), (36 bytes).
    Removing stream.o(i._ZThn4_N4mbed6StreamD0Ev), (14 bytes).
    Removing stream.o(i._ZThn4_N4mbed6StreamD1Ev), (14 bytes).
    Removing stream.o(.ARM.exidx), (8 bytes).
    Removing stream.o(.ARM.exidx), (8 bytes).
    Removing stream.o(.ARM.exidx), (8 bytes).
    Removing stream.o(.ARM.exidx), (8 bytes).
    Removing stream.o(.ARM.exidx), (8 bytes).
    Removing stream.o(.ARM.exidx), (8 bytes).
    Removing stream.o(.ARM.exidx), (8 bytes).
    Removing stream.o(.ARM.exidx), (8 bytes).
    Removing stream.o(.ARM.exidx), (8 bytes).
    Removing stream.o(.ARM.exidx), (8 bytes).
    Removing stream.o(.ARM.exidx), (8 bytes).
    Removing stream.o(.ARM.exidx), (8 bytes).
    Removing stream.o(.ARM.exidx), (8 bytes).
    Removing stream.o(.ARM.exidx), (8 bytes).
    Removing stream.o(.ARM.exidx), (8 bytes).
    Removing stream.o(.ARM.exidx), (8 bytes).
    Removing stream.o(.ARM.exidx), (8 bytes).
    Removing stream.o(.ARM.exidx), (8 bytes).
    Removing gpio_api.o(.rev16_text), (4 bytes).
    Removing gpio_api.o(.revsh_text), (4 bytes).
    Removing ealcdboardgpio.o(.rev16_text), (4 bytes).
    Removing ealcdboardgpio.o(.revsh_text), (4 bytes).
    Removing ealcdboardgpio.o(.ARM.exidx), (8 bytes).
    Removing ealcdboardgpio.o(.ARM.exidx), (8 bytes).
    Removing ealcdboardgpio.o(.ARM.exidx), (8 bytes).
    Removing ealcdboardgpio.o(.ARM.exidx), (8 bytes).
    Removing ealcdboardgpio.o(.ARM.exidx), (8 bytes).
    Removing ealcdboardgpio.o(.ARM.exidx), (8 bytes).
    Removing ealcdboard.o(.rev16_text), (4 bytes).
    Removing ealcdboard.o(.revsh_text), (4 bytes).
    Removing ealcdboard.o(i._ZN10EaLcdBoard11eepromWriteEPhtt), (178 bytes).
    Removing ealcdboard.o(i._ZN10EaLcdBoard13getDisplayMfgEPci), (68 bytes).
    Removing ealcdboard.o(i._ZN10EaLcdBoard14getDisplayNameEPci), (64 bytes).
    Removing ealcdboard.o(i._ZN10EaLcdBoard15getPowerDownSeqEPci), (88 bytes).
    Removing ealcdboard.o(i._ZN10EaLcdBoard15setWriteProtectEb), (36 bytes).
    Removing ealcdboard.o(i._ZN10EaLcdBoard15storeParametersEPKcS1_PN13LcdController6ConfigES1_S1_PNS_13TouchParams_tEb), (436 bytes).
    Removing ealcdboard.o(i._ZN10EaLcdBoard18getTouchParametersEPNS_13TouchParams_tE), (92 bytes).
    Removing ealcdboard.o(i._ZN10EaLcdBoard5closeEv), (54 bytes).
    Removing ealcdboard.o(.ARM.exidx), (8 bytes).
    Removing ealcdboard.o(.ARM.exidx), (8 bytes).
    Removing ealcdboard.o(.ARM.exidx), (8 bytes).
    Removing ealcdboard.o(.ARM.exidx), (8 bytes).
    Removing ealcdboard.o(.ARM.exidx), (8 bytes).
    Removing ealcdboard.o(.ARM.exidx), (8 bytes).
    Removing ealcdboard.o(.ARM.exidx), (8 bytes).
    Removing ealcdboard.o(.ARM.exidx), (8 bytes).
    Removing ealcdboard.o(.ARM.exidx), (8 bytes).
    Removing ealcdboard.o(.ARM.exidx), (8 bytes).
    Removing ealcdboard.o(.ARM.exidx), (8 bytes).
    Removing ealcdboard.o(.ARM.exidx), (8 bytes).
    Removing ealcdboard.o(.ARM.exidx), (8 bytes).
    Removing ealcdboard.o(.ARM.exidx), (8 bytes).
    Removing ealcdboard.o(.ARM.exidx), (8 bytes).
    Removing ealcdboard.o(.ARM.exidx), (8 bytes).
    Removing ealcdboard.o(.ARM.exidx), (8 bytes).
    Removing ealcdboard.o(.ARM.exidx), (8 bytes).
    Removing ealcdboard.o(.ARM.exidx), (8 bytes).
    Removing ealcdboard.o(.ARM.exidx), (8 bytes).
    Removing ealcdboard.o(.ARM.exidx), (8 bytes).
    Removing ealcdboard.o(.ARM.exidx), (8 bytes).
    Removing ealcdboard.o(.ARM.exidx), (8 bytes).
    Removing ealcdboard.o(.ARM.exidx), (8 bytes).
    Removing ealcdboard.o(.ARM.exidx), (8 bytes).
    Removing ealcdboard.o(.ARM.exidx), (8 bytes).
    Removing ealcdboard.o(.ARM.exidx), (8 bytes).
    Removing ealcdboard.o(.ARM.exidx), (8 bytes).
    Removing ealcdboard.o(.ARM.exidx), (8 bytes).
    Removing ealcdboard.o(.ARM.exidx), (8 bytes).
    Removing ealcdboard.o(.ARM.exidx), (8 bytes).
    Removing ealcdboard.o(.ARM.exidx), (8 bytes).
    Removing gfxfb.o(.rev16_text), (4 bytes).
    Removing gfxfb.o(.revsh_text), (4 bytes).
    Removing gfxfb.o(i._ZN5GFXFb11writeStringEPKc), (34 bytes).
    Removing gfxfb.o(i._ZN5GFXFb13drawFastHLineEssst), (98 bytes).
    Removing gfxfb.o(i._ZN5GFXFb14getStringWidthEPKc), (30 bytes).
    Removing gfxfb.o(i._ZN5GFXFb15getStringHeightEPKc), (6 bytes).
    Removing gfxfb.o(.ARM.exidx), (8 bytes).
    Removing gfxfb.o(.ARM.exidx), (8 bytes).
    Removing gfxfb.o(.ARM.exidx), (8 bytes).
    Removing gfxfb.o(.ARM.exidx), (8 bytes).
    Removing gfxfb.o(.ARM.exidx), (8 bytes).
    Removing gfxfb.o(.ARM.exidx), (8 bytes).
    Removing gfxfb.o(.ARM.exidx), (8 bytes).
    Removing gfxfb.o(.ARM.exidx), (8 bytes).
    Removing sdram.o(.rev16_text), (4 bytes).
    Removing sdram.o(.revsh_text), (4 bytes).
    Removing sdram.o(i._Z24sdram_disableMallocSdramv), (12 bytes).
    Removing sdram.o(.ARM.exidx), (8 bytes).
    Removing sdram.o(.ARM.exidx), (8 bytes).
    Removing sdram.o(.ARM.exidx), (8 bytes).
    Removing sdram.o(.ARM.exidx), (8 bytes).
    Removing sdram.o(.ARM.exidx), (8 bytes).
    Removing sdram.o(.ARM.exidx), (8 bytes).
    Removing sdram.o(.ARM.exidx), (8 bytes).
    Removing sdram.o(.ARM.exidx), (8 bytes).
    Removing sdram.o(.ARM.exidx), (8 bytes).
    Removing sdram.o(.ARM.exidx), (8 bytes).
    Removing filelike.o(.rev16_text), (4 bytes).
    Removing filelike.o(.revsh_text), (4 bytes).
    Removing filelike.o(i._ZN4mbed8FileLikeD0Ev), (18 bytes).
    Removing filelike.o(i._ZN4mbed8FileLikeD2Ev), (24 bytes).
    Removing filelike.o(i._ZThn4_N4mbed8FileLikeD0Ev), (14 bytes).
    Removing filelike.o(i._ZThn4_N4mbed8FileLikeD1Ev), (14 bytes).
    Removing filelike.o(.ARM.exidx), (8 bytes).
    Removing filelike.o(.ARM.exidx), (8 bytes).
    Removing filelike.o(.ARM.exidx), (8 bytes).
    Removing filelike.o(.ARM.exidx), (8 bytes).
    Removing filelike.o(.ARM.exidx), (8 bytes).
    Removing pinmap.o(.rev16_text), (4 bytes).
    Removing pinmap.o(.revsh_text), (4 bytes).
    Removing us_ticker.o(.rev16_text), (4 bytes).
    Removing us_ticker.o(.revsh_text), (4 bytes).
    Removing i2c_api.o(.rev16_text), (4 bytes).
    Removing i2c_api.o(.revsh_text), (4 bytes).
    Removing i2c_api.o(i.i2c_byte_read), (18 bytes).
    Removing i2c_api.o(i.i2c_byte_write), (64 bytes).
    Removing i2c_api.o(i.i2c_reset), (12 bytes).
    Removing i2c_api.o(i.i2c_slave_address), (48 bytes).
    Removing i2c_api.o(i.i2c_slave_mode), (60 bytes).
    Removing i2c_api.o(i.i2c_slave_read), (92 bytes).
    Removing i2c_api.o(i.i2c_slave_receive), (48 bytes).
    Removing i2c_api.o(i.i2c_slave_write), (70 bytes).
    Removing pwmout_api.o(.rev16_text), (4 bytes).
    Removing pwmout_api.o(.revsh_text), (4 bytes).
    Removing pwmout_api.o(i.pwmout_free), (2 bytes).
    Removing pwmout_api.o(i.pwmout_period), (32 bytes).
    Removing pwmout_api.o(i.pwmout_pulsewidth), (32 bytes).
    Removing pwmout_api.o(i.pwmout_pulsewidth_ms), (22 bytes).
    Removing pwmout_api.o(i.pwmout_pulsewidth_us), (48 bytes).
    Removing pwmout_api.o(i.pwmout_read), (58 bytes).
    Removing retarget.o(.rev16_text), (4 bytes).
    Removing retarget.o(.revsh_text), (4 bytes).
    Removing retarget.o(i._ZN4mbed10FileHandleD0Ev), (18 bytes).
    Removing retarget.o(i._ZN4mbed10FileHandleD2Ev), (48 bytes).
    Removing retarget.o(i._ZN4mbed9mbed_getcEPSt6__FILE), (12 bytes).
    Removing retarget.o(i._ZN4mbed9mbed_getsEPciPSt6__FILE), (20 bytes).
    Removing retarget.o(i._sys_command_string), (6 bytes).
    Removing retarget.o(i._sys_ensure), (44 bytes).
    Removing retarget.o(i._sys_read), (92 bytes).
    Removing retarget.o(i.closedir), (14 bytes).
    Removing retarget.o(i.mkdir), (58 bytes).
    Removing retarget.o(i.opendir), (68 bytes).
    Removing retarget.o(i.readdir), (14 bytes).
    Removing retarget.o(i.remove), (54 bytes).
    Removing retarget.o(i.rename), (88 bytes).
    Removing retarget.o(i.rewinddir), (14 bytes).
    Removing retarget.o(i.seekdir), (18 bytes).
    Removing retarget.o(i.telldir), (14 bytes).
    Removing retarget.o(i.tmpfile), (4 bytes).
    Removing retarget.o(i.tmpnam), (6 bytes).
    Removing retarget.o(.ARM.exidx), (8 bytes).
    Removing retarget.o(.ARM.exidx), (8 bytes).
    Removing retarget.o(.ARM.exidx), (8 bytes).
    Removing retarget.o(.ARM.exidx), (8 bytes).
    Removing retarget.o(.ARM.exidx), (8 bytes).
    Removing retarget.o(.ARM.exidx), (8 bytes).
    Removing retarget.o(.ARM.exidx), (8 bytes).
    Removing retarget.o(.ARM.exidx), (8 bytes).
    Removing retarget.o(.ARM.exidx), (8 bytes).
    Removing retarget.o(.ARM.exidx), (8 bytes).
    Removing retarget.o(.ARM.exidx), (8 bytes).
    Removing retarget.o(.ARM.exidx), (8 bytes).
    Removing retarget.o(.ARM.exidx), (8 bytes).
    Removing retarget.o(.ARM.exidx), (8 bytes).
    Removing retarget.o(.ARM.exidx), (8 bytes).
    Removing retarget.o(.ARM.exidx), (8 bytes).
    Removing retarget.o(.ARM.exidx), (8 bytes).
    Removing retarget.o(.ARM.exidx), (8 bytes).
    Removing retarget.o(.ARM.exidx), (8 bytes).
    Removing retarget.o(.ARM.exidx), (8 bytes).
    Removing retarget.o(.ARM.exidx), (8 bytes).
    Removing retarget.o(.ARM.exidx), (8 bytes).
    Removing retarget.o(.ARM.exidx), (8 bytes).
    Removing retarget.o(.ARM.exidx), (8 bytes).
    Removing retarget.o(.ARM.exidx), (8 bytes).
    Removing retarget.o(.ARM.exidx), (8 bytes).
    Removing retarget.o(.ARM.exidx), (8 bytes).
    Removing retarget.o(.ARM.exidx), (8 bytes).
    Removing retarget.o(.ARM.exidx), (8 bytes).
    Removing retarget.o(.ARM.exidx), (8 bytes).
    Removing lcdcontroller.o(.rev16_text), (4 bytes).
    Removing lcdcontroller.o(.revsh_text), (4 bytes).
    Removing lcdcontroller.o(i._ZN13LcdController5closeEv), (52 bytes).
    Removing lcdcontroller.o(.ARM.exidx), (8 bytes).
    Removing lcdcontroller.o(.ARM.exidx), (8 bytes).
    Removing lcdcontroller.o(.ARM.exidx), (8 bytes).
    Removing lcdcontroller.o(.ARM.exidx), (8 bytes).
    Removing lcdcontroller.o(.ARM.exidx), (8 bytes).
    Removing lcdcontroller.o(.ARM.exidx), (8 bytes).
    Removing lcdcontroller.o(.ARM.exidx), (8 bytes).
    Removing lcdcontroller.o(.ARM.exidx), (8 bytes).
    Removing filebase.o(.rev16_text), (4 bytes).
    Removing filebase.o(.revsh_text), (4 bytes).
    Removing filebase.o(i._ZN4mbed8FileBase3getEi), (36 bytes).
    Removing filebase.o(i._ZN4mbed8FileBase7getNameEv), (6 bytes).
    Removing filebase.o(i._ZN4mbed8FileBaseD0Ev), (18 bytes).
    Removing filebase.o(i._ZN4mbed8FileBaseD1Ev), (56 bytes).
    Removing filebase.o(.ARM.exidx), (8 bytes).
    Removing filebase.o(.ARM.exidx), (8 bytes).
    Removing filebase.o(.ARM.exidx), (8 bytes).
    Removing filebase.o(.ARM.exidx), (8 bytes).
    Removing filebase.o(.ARM.exidx), (8 bytes).
    Removing filebase.o(.ARM.exidx), (8 bytes).
    Removing filebase.o(.ARM.exidx), (8 bytes).
    Removing filepath.o(.rev16_text), (4 bytes).
    Removing filepath.o(.revsh_text), (4 bytes).
    Removing filepath.o(.ARM.exidx), (8 bytes).
    Removing filepath.o(.ARM.exidx), (8 bytes).
    Removing filepath.o(.ARM.exidx), (8 bytes).
    Removing filepath.o(.ARM.exidx), (8 bytes).
    Removing filepath.o(.ARM.exidx), (8 bytes).
    Removing filepath.o(.ARM.exidx), (8 bytes).
    Removing filepath.o(.ARM.exidx), (8 bytes).
    Removing filesystemlike.o(.rev16_text), (4 bytes).
    Removing filesystemlike.o(.revsh_text), (4 bytes).
    Removing filesystemlike.o(i._ZN4mbed14FileSystemLike7opendirEv), (52 bytes).
    Removing filesystemlike.o(i._ZN4mbed14FileSystemLikeC2EPKc), (32 bytes).
    Removing filesystemlike.o(i._ZN4mbed14FileSystemLikeD0Ev), (18 bytes).
    Removing filesystemlike.o(i._ZN4mbed14FileSystemLikeD2Ev), (16 bytes).
    Removing filesystemlike.o(.ARM.exidx), (8 bytes).
    Removing filesystemlike.o(.ARM.exidx), (8 bytes).
    Removing filesystemlike.o(.ARM.exidx), (8 bytes).
    Removing filesystemlike.o(.ARM.exidx), (8 bytes).
    Removing serial_api.o(.rev16_text), (4 bytes).
    Removing serial_api.o(.revsh_text), (4 bytes).
    Removing serial_api.o(i.serial_break_clear), (14 bytes).
    Removing serial_api.o(i.serial_break_set), (14 bytes).
    Removing serial_api.o(i.serial_clear), (8 bytes).
    Removing serial_api.o(i.serial_free), (16 bytes).
    Removing serial_api.o(i.serial_getc), (22 bytes).
    Removing serial_api.o(i.serial_irq_handler), (24 bytes).
    Removing serial_api.o(i.serial_irq_set), (256 bytes).
    Removing serial_api.o(i.serial_pinout_tx), (20 bytes).
    Removing serial_api.o(i.serial_readable), (12 bytes).
    Removing serial_api.o(i.uart0_irq), (24 bytes).
    Removing serial_api.o(i.uart1_irq), (24 bytes).
    Removing serial_api.o(i.uart2_irq), (24 bytes).
    Removing serial_api.o(i.uart3_irq), (24 bytes).
    Removing serial_api.o(i.uart4_irq), (24 bytes).
    Removing serial_api.o(i.uart_irq), (64 bytes).
    Removing serial_api.o(.bss), (20 bytes).
    Removing board.o(.rev16_text), (4 bytes).
    Removing board.o(.revsh_text), (4 bytes).
    Removing main.o(.ARM.exidx), (8 bytes).
    Removing main.o(.ARM.exidx), (8 bytes).
    Removing matrix3x3.o(i._ZN9Matrix3x3C1Efffffffff), (38 bytes).
    Removing matrix3x3.o(.ARM.exidx), (8 bytes).
    Removing quaternion.o(i._ZN10QuaternionC1Effff), (56 bytes).
    Removing quaternion.o(.ARM.exidx), (8 bytes).
    Removing quaternion.o(i._ZN10Quaternion9GetVectorEv), (48 bytes).
    Removing quaternion.o(.ARM.exidx), (8 bytes).
    Removing quaternion.o(.ARM.exidx), (8 bytes).
    Removing physics.o(i._Zmlf6Vector), (78 bytes).
    Removing physics.o(.ARM.exidx), (8 bytes).
    Removing physics.o(i._Zml6Vectorf), (78 bytes).
    Removing physics.o(.ARM.exidx), (8 bytes).
    Removing physics.o(i._Zpl6VectorS_), (78 bytes).
    Removing physics.o(.ARM.exidx), (8 bytes).
    Removing physics.o(i._Zmi6VectorS_), (78 bytes).
    Removing physics.o(.ARM.exidx), (8 bytes).
    Removing physics.o(i._Zeo6VectorS_), (118 bytes).
    Removing physics.o(.ARM.exidx), (8 bytes).
    Removing physics.o(i._Zdv6Vectorf), (90 bytes).
    Removing physics.o(.ARM.exidx), (8 bytes).
    Removing physics.o(i._ZNK10QuaternioncoEv), (72 bytes).
    Removing physics.o(.ARM.exidx), (8 bytes).
    Removing physics.o(i._Zml6VectorS_), (44 bytes).
    Removing physics.o(.ARM.exidx), (8 bytes).
    Removing physics.o(i._ZSt4fabsf), (10 bytes).
    Removing physics.o(.ARM.exidx), (8 bytes).
    Removing physics.o(i._ZSt3powfi), (34 bytes).
    Removing physics.o(.ARM.exidx), (8 bytes).
    Removing physics.o(.ARM.exidx), (8 bytes).
    Removing physics.o(.ARM.exidx), (8 bytes).
    Removing ticker.o(i._ZN4mbed6TickerD1Ev), (32 bytes).
    Removing ticker.o(.ARM.exidx), (8 bytes).
    Removing ticker.o(i._ZN4mbed6TickerD0Ev), (18 bytes).
    Removing ticker.o(.ARM.exidx), (8 bytes).
    Removing ticker.o(.constdata__ZTIN4mbed6TickerE), (12 bytes).
    Removing ticker.o(.constdata__ZTSN4mbed6TickerE), (15 bytes).
    Removing timerevent.o(.constdata__ZTIN4mbed10TimerEventE), (8 bytes).
    Removing timerevent.o(.constdata__ZTSN4mbed10TimerEventE), (20 bytes).
    Removing adafruit_gfx.o(.constdata__ZTI12Adafruit_GFX), (8 bytes).
    Removing adafruit_gfx.o(.constdata__ZTS12Adafruit_GFX), (15 bytes).
    Removing display.o(.ARM.exidx), (8 bytes).
    Removing display.o(.constdata__ZTI7Display), (32 bytes).
    Removing display.o(.constdata__ZTS7Display), (9 bytes).
    Removing stream.o(.constdata__ZTIN4mbed6StreamE), (12 bytes).
    Removing stream.o(.constdata__ZTSN4mbed6StreamE), (15 bytes).
    Removing ealcdboardgpio.o(.ARM.exidx), (8 bytes).
    Removing ealcdboardgpio.o(.ARM.exidx), (8 bytes).
    Removing ealcdboardgpio.o(.constdata__ZTI14EaLcdBoardGPIO), (12 bytes).
    Removing ealcdboardgpio.o(.constdata__ZTS14EaLcdBoardGPIO), (17 bytes).
    Removing ealcdboard.o(.constdata__ZTI10EaLcdBoard), (8 bytes).
    Removing ealcdboard.o(.constdata__ZTS10EaLcdBoard), (13 bytes).
    Removing gfxfb.o(.constdata__ZTI5GFXFb), (12 bytes).
    Removing gfxfb.o(.constdata__ZTS5GFXFb), (7 bytes).
    Removing filelike.o(.ARM.exidx), (8 bytes).
    Removing filelike.o(.constdata__ZTIN4mbed8FileLikeE), (32 bytes).
    Removing filelike.o(.constdata__ZTSN4mbed8FileLikeE), (17 bytes).
    Removing retarget.o(.constdata__ZTIN4mbed10FileHandleE), (8 bytes).
    Removing retarget.o(.constdata__ZTSN4mbed10FileHandleE), (20 bytes).
    Removing filebase.o(.constdata__ZTIN4mbed8FileBaseE), (8 bytes).
    Removing filebase.o(.constdata__ZTSN4mbed8FileBaseE), (17 bytes).
    Removing filesystemlike.o(.constdata__ZTVN4mbed14FileSystemLikeE), (36 bytes).
    Removing filesystemlike.o(i._ZN4mbed14FileSystemLike6removeEPKc), (8 bytes).
    Removing filesystemlike.o(.ARM.exidx), (8 bytes).
    Removing filesystemlike.o(i._ZN4mbed14FileSystemLike6renameEPKcS2_), (8 bytes).
    Removing filesystemlike.o(.ARM.exidx), (8 bytes).
    Removing filesystemlike.o(i._ZN4mbed14FileSystemLike7opendirEPKc), (6 bytes).
    Removing filesystemlike.o(.ARM.exidx), (8 bytes).
    Removing filesystemlike.o(i._ZN4mbed14FileSystemLike5mkdirEPKci), (8 bytes).
    Removing filesystemlike.o(.ARM.exidx), (8 bytes).
    Removing filesystemlike.o(.constdata__ZTVN4mbed9DirHandleE), (36 bytes).
    Removing filesystemlike.o(.constdata__ZTVN4mbed13BaseDirHandleE), (36 bytes).
    Removing filesystemlike.o(.constdata__ZTIN4mbed14FileSystemLikeE), (12 bytes).
    Removing filesystemlike.o(.constdata__ZTIN4mbed13BaseDirHandleE), (12 bytes).
    Removing filesystemlike.o(.constdata__ZTIN4mbed9DirHandleE), (8 bytes).
    Removing filesystemlike.o(.constdata__ZTSN4mbed14FileSystemLikeE), (24 bytes).
    Removing filesystemlike.o(.constdata__ZTSN4mbed9DirHandleE), (18 bytes).
    Removing filesystemlike.o(.constdata__ZTSN4mbed13BaseDirHandleE), (23 bytes).
    Removing filesystemlike.o(i._ZN4mbed9DirHandle7telldirEv), (8 bytes).
    Removing filesystemlike.o(.ARM.exidx), (8 bytes).
    Removing filesystemlike.o(i._ZN4mbed9DirHandle7seekdirEl), (2 bytes).
    Removing filesystemlike.o(.ARM.exidx), (8 bytes).
    Removing filesystemlike.o(i._ZN4mbed9DirHandleD2Ev), (2 bytes).
    Removing filesystemlike.o(.ARM.exidx), (8 bytes).
    Removing filesystemlike.o(i._ZN4mbed9DirHandleD0Ev), (16 bytes).
    Removing filesystemlike.o(.ARM.exidx), (8 bytes).
    Removing filesystemlike.o(i._ZN4mbed13BaseDirHandle8closedirEv), (18 bytes).
    Removing filesystemlike.o(.ARM.exidx), (8 bytes).
    Removing filesystemlike.o(i._ZN4mbed13BaseDirHandle7readdirEv), (50 bytes).
    Removing filesystemlike.o(.ARM.exidx), (8 bytes).
    Removing filesystemlike.o(i._ZN4mbed13BaseDirHandle7telldirEv), (6 bytes).
    Removing filesystemlike.o(.ARM.exidx), (8 bytes).
    Removing filesystemlike.o(i._ZN4mbed13BaseDirHandle7seekdirEl), (4 bytes).
    Removing filesystemlike.o(.ARM.exidx), (8 bytes).
    Removing filesystemlike.o(i._ZN4mbed13BaseDirHandle9rewinddirEv), (6 bytes).
    Removing filesystemlike.o(.ARM.exidx), (8 bytes).
    Removing filesystemlike.o(i._ZN4mbed13BaseDirHandleD1Ev), (4 bytes).
    Removing filesystemlike.o(.ARM.exidx), (8 bytes).
    Removing filesystemlike.o(i._ZN4mbed13BaseDirHandleD0Ev), (18 bytes).
    Removing filesystemlike.o(.ARM.exidx), (8 bytes).

631 unused section(s) (total 32912 bytes) removed from the image.

==============================================================================

Memory Map of the image

  Image Entry point : 0x00000000

  Load Region LR_IROM1 (Base: 0x00000000, Size: 0x00007838, Max: 0x00080000, ABSOLUTE)

    Execution Region ER_IROM1 (Base: 0x00000000, Size: 0x000077a4, Max: 0x00080000, ABSOLUTE)

    Base Addr    Size         Type   Attr      Idx    E Section Name        Object

    0x00000000   0x000000e4   Data   RO          818    RESET               startup_lpc407x_8x_177x_8x.o
    0x000000e4   0x00000008   Code   RO         4846  * !!!main             c_w.l(__main.o)
    0x000000ec   0x00000000   Code   RO         4785    .ARM.Collect$$_printf_percent$$00000000  c_w.l(_printf_percent.o)
    0x000000ec   0x00000006   Code   RO         5167    .ARM.Collect$$_printf_percent$$00000001  c_w.l(_printf_n.o)
    0x000000f2   0x00000006   Code   RO         4784    .ARM.Collect$$_printf_percent$$00000002  c_w.l(_printf_p.o)
    0x000000f8   0x00000006   Code   RO         5173    .ARM.Collect$$_printf_percent$$00000003  c_w.l(_printf_f.o)
    0x000000fe   0x00000006   Code   RO         5174    .ARM.Collect$$_printf_percent$$00000004  c_w.l(_printf_e.o)
    0x00000104   0x00000006   Code   RO         5175    .ARM.Collect$$_printf_percent$$00000005  c_w.l(_printf_g.o)
    0x0000010a   0x00000006   Code   RO         5176    .ARM.Collect$$_printf_percent$$00000006  c_w.l(_printf_a.o)
    0x00000110   0x0000000a   Code   RO         5181    .ARM.Collect$$_printf_percent$$00000007  c_w.l(_printf_ll.o)
    0x0000011a   0x00000006   Code   RO         5170    .ARM.Collect$$_printf_percent$$00000008  c_w.l(_printf_i.o)
    0x00000120   0x00000006   Code   RO         5171    .ARM.Collect$$_printf_percent$$00000009  c_w.l(_printf_d.o)
    0x00000126   0x00000006   Code   RO         5172    .ARM.Collect$$_printf_percent$$0000000A  c_w.l(_printf_u.o)
    0x0000012c   0x00000006   Code   RO         5169    .ARM.Collect$$_printf_percent$$0000000B  c_w.l(_printf_o.o)
    0x00000132   0x00000006   Code   RO         5168    .ARM.Collect$$_printf_percent$$0000000C  c_w.l(_printf_x.o)
    0x00000138   0x00000006   Code   RO         5178    .ARM.Collect$$_printf_percent$$0000000D  c_w.l(_printf_lli.o)
    0x0000013e   0x00000006   Code   RO         5179    .ARM.Collect$$_printf_percent$$0000000E  c_w.l(_printf_lld.o)
    0x00000144   0x00000006   Code   RO         5180    .ARM.Collect$$_printf_percent$$0000000F  c_w.l(_printf_llu.o)
    0x0000014a   0x00000006   Code   RO         5185    .ARM.Collect$$_printf_percent$$00000010  c_w.l(_printf_llo.o)
    0x00000150   0x00000006   Code   RO         5186    .ARM.Collect$$_printf_percent$$00000011  c_w.l(_printf_llx.o)
    0x00000156   0x0000000a   Code   RO         5182    .ARM.Collect$$_printf_percent$$00000012  c_w.l(_printf_l.o)
    0x00000160   0x00000006   Code   RO         5165    .ARM.Collect$$_printf_percent$$00000013  c_w.l(_printf_c.o)
    0x00000166   0x00000006   Code   RO         5166    .ARM.Collect$$_printf_percent$$00000014  c_w.l(_printf_s.o)
    0x0000016c   0x00000006   Code   RO         5183    .ARM.Collect$$_printf_percent$$00000015  c_w.l(_printf_lc.o)
    0x00000172   0x00000006   Code   RO         5184    .ARM.Collect$$_printf_percent$$00000016  c_w.l(_printf_ls.o)
    0x00000178   0x00000004   Code   RO         5177    .ARM.Collect$$_printf_percent$$00000017  c_w.l(_printf_percent_end.o)
    0x0000017c   0x00000002   Code   RO         5655    .ARM.Collect$$libinit$$00000000  c_w.l(libinit.o)
    0x0000017e   0x00000004   Code   RO         5236    .ARM.Collect$$libinit$$00000001  c_w.l(libinit2.o)
    0x00000182   0x00000000   Code   RO         5239    .ARM.Collect$$libinit$$00000004  c_w.l(libinit2.o)
    0x00000182   0x00000008   Code   RO         5240    .ARM.Collect$$libinit$$00000005  c_w.l(libinit2.o)
    0x0000018a   0x00000000   Code   RO         5242    .ARM.Collect$$libinit$$0000000A  c_w.l(libinit2.o)
    0x0000018a   0x00000000   Code   RO         5244    .ARM.Collect$$libinit$$0000000C  c_w.l(libinit2.o)
    0x0000018a   0x00000000   Code   RO         5246    .ARM.Collect$$libinit$$0000000E  c_w.l(libinit2.o)
    0x0000018a   0x00000006   Code   RO         5247    .ARM.Collect$$libinit$$0000000F  c_w.l(libinit2.o)
    0x00000190   0x00000000   Code   RO         5249    .ARM.Collect$$libinit$$00000011  c_w.l(libinit2.o)
    0x00000190   0x0000000c   Code   RO         5250    .ARM.Collect$$libinit$$00000012  c_w.l(libinit2.o)
    0x0000019c   0x00000000   Code   RO         5251    .ARM.Collect$$libinit$$00000013  c_w.l(libinit2.o)
    0x0000019c   0x00000000   Code   RO         5253    .ARM.Collect$$libinit$$00000015  c_w.l(libinit2.o)
    0x0000019c   0x0000000a   Code   RO         5254    .ARM.Collect$$libinit$$00000016  c_w.l(libinit2.o)
    0x000001a6   0x00000000   Code   RO         5255    .ARM.Collect$$libinit$$00000017  c_w.l(libinit2.o)
    0x000001a6   0x00000000   Code   RO         5257    .ARM.Collect$$libinit$$00000019  c_w.l(libinit2.o)
    0x000001a6   0x00000000   Code   RO         5259    .ARM.Collect$$libinit$$0000001B  c_w.l(libinit2.o)
    0x000001a6   0x00000000   Code   RO         5261    .ARM.Collect$$libinit$$0000001D  c_w.l(libinit2.o)
    0x000001a6   0x00000000   Code   RO         5263    .ARM.Collect$$libinit$$0000001F  c_w.l(libinit2.o)
    0x000001a6   0x00000000   Code   RO         5265    .ARM.Collect$$libinit$$00000021  c_w.l(libinit2.o)
    0x000001a6   0x00000000   Code   RO         5267    .ARM.Collect$$libinit$$00000023  c_w.l(libinit2.o)
    0x000001a6   0x00000004   Code   RO         5268    .ARM.Collect$$libinit$$00000024  c_w.l(libinit2.o)
    0x000001aa   0x00000000   Code   RO         5269    .ARM.Collect$$libinit$$00000025  c_w.l(libinit2.o)
    0x000001aa   0x00000000   Code   RO         5273    .ARM.Collect$$libinit$$0000002C  c_w.l(libinit2.o)
    0x000001aa   0x00000000   Code   RO         5275    .ARM.Collect$$libinit$$0000002E  c_w.l(libinit2.o)
    0x000001aa   0x00000000   Code   RO         5277    .ARM.Collect$$libinit$$00000030  c_w.l(libinit2.o)
    0x000001aa   0x00000004   Code   RO         5278    .ARM.Collect$$libinit$$00000031  c_w.l(libinit2.o)
    0x000001ae   0x00000000   Code   RO         5279    .ARM.Collect$$libinit$$00000032  c_w.l(libinit2.o)
    0x000001ae   0x00000002   Code   RO         5280    .ARM.Collect$$libinit$$00000033  c_w.l(libinit2.o)
    0x000001b0   0x00000000   Code   RO         5537    .ARM.Collect$$libshutdown$$00000004  c_w.l(libshutdown2.o)
    0x000001b0   0x00000000   Code   RO         5103    .ARM.Collect$$rtentry$$00000000  c_w.l(__rtentry.o)
    0x000001b0   0x00000000   Code   RO         5423    .ARM.Collect$$rtentry$$00000002  c_w.l(__rtentry2.o)
    0x000001b0   0x00000006   Code   RO         5435    .ARM.Collect$$rtentry$$00000004  c_w.l(__rtentry4.o)
    0x000001b6   0x00000000   Code   RO         5425    .ARM.Collect$$rtentry$$00000009  c_w.l(__rtentry2.o)
    0x000001b6   0x00000004   Code   RO         5426    .ARM.Collect$$rtentry$$0000000A  c_w.l(__rtentry2.o)
    0x000001ba   0x00000000   Code   RO         5428    .ARM.Collect$$rtentry$$0000000C  c_w.l(__rtentry2.o)
    0x000001ba   0x00000008   Code   RO         5429    .ARM.Collect$$rtentry$$0000000D  c_w.l(__rtentry2.o)
    0x000001c2   0x00000002   PAD
    0x000001c4   0x00000000   Code   RO         5446    .emb_text           c_w.l(maybetermalloc1.o)
    0x000001c4   0x00000024   Code   RO          820    .text               startup_lpc407x_8x_177x_8x.o
    0x000001e8   0x0000005e   Code   RO         4675    .text               c_w.l(h1_alloc.o)
    0x00000246   0x0000004e   Code   RO         4677    .text               c_w.l(h1_free.o)
    0x00000294   0x0000000a   Code   RO         4733    .text               c_w.l(vfprintf.o)
    0x0000029e   0x00000002   PAD
    0x000002a0   0x0000002c   Code   RO         4737    .text               c_w.l(__2sprintf.o)
    0x000002cc   0x00000014   Code   RO         4808    .text               c_w.l(setbuf.o)
    0x000002e0   0x00000008   Code   RO         5104    .text               c_w.l(rt_heap_descriptor.o)
    0x000002e8   0x00000008   Code   RO         5109    .text               c_w.l(rt_new_handler_addr.o)
    0x000002f0   0x00000004   Code   RO         5114    .text               c_w.l(hguard.o)
    0x000002f4   0x00000008   Code   RO         5205    .text               c_w.l(ferror.o)
    0x000002fc   0x00000004   Code   RO          819    .ARM.__at_0x02FC    startup_lpc407x_8x_177x_8x.o
    0x00000300   0x00000094   Code   RO         4761    .text               c_w.l(_printf_hex_int_ll_ptr.o)
    0x00000394   0x00000188   Code   RO         4781    .text               c_w.l(__printf_flags_ss_wp.o)
    0x0000051c   0x0000003c   Code   RO         4788    .text               c_w.l(__0sscanf.o)
    0x00000558   0x0000014c   Code   RO         4790    .text               c_w.l(_scanf_int.o)
    0x000006a4   0x00000064   Code   RO         4792    .text               c_w.l(fflush.o)
    0x00000708   0x000000ec   Code   RO         4806    .text               c_w.l(fopen.o)
    0x000007f4   0x0000004c   Code   RO         4816    .text               c_w.l(fclose.o)
    0x00000840   0x0000003e   Code   RO         4830    .text               c_w.l(strlen.o)
    0x0000087e   0x00000096   Code   RO         4832    .text               c_w.l(strncmp.o)
    0x00000914   0x00000044   Code   RO         4838    .text               c_w.l(rt_memclr.o)
    0x00000958   0x0000004e   Code   RO         4840    .text               c_w.l(rt_memclr_w.o)
    0x000009a6   0x00000002   PAD
    0x000009a8   0x00000080   Code   RO         4844    .text               c_w.l(strcmpv7m.o)
    0x00000a28   0x00000024   Code   RO         4851    .text               c_w.l(init_aeabi.o)
    0x00000a4c   0x0000008a   Code   RO         5116    .text               c_w.l(init_alloc.o)
    0x00000ad6   0x0000000e   Code   RO         5120    .text               c_w.l(h1_init.o)
    0x00000ae4   0x0000004e   Code   RO         5136    .text               c_w.l(_printf_pad.o)
    0x00000b32   0x00000024   Code   RO         5138    .text               c_w.l(_printf_truncate.o)
    0x00000b56   0x00000052   Code   RO         5140    .text               c_w.l(_printf_str.o)
    0x00000ba8   0x000000b2   Code   RO         5142    .text               c_w.l(_printf_intcommon.o)
    0x00000c5a   0x00000002   PAD
    0x00000c5c   0x00000078   Code   RO         5144    .text               c_w.l(_printf_dec.o)
    0x00000cd4   0x00000028   Code   RO         5146    .text               c_w.l(_printf_charcount.o)
    0x00000cfc   0x00000030   Code   RO         5148    .text               c_w.l(_printf_char_common.o)
    0x00000d2c   0x0000000a   Code   RO         5150    .text               c_w.l(_sputc.o)
    0x00000d36   0x00000002   PAD
    0x00000d38   0x00000024   Code   RO         5152    .text               c_w.l(_printf_char_file.o)
    0x00000d5c   0x000000bc   Code   RO         5154    .text               c_w.l(_printf_wctomb.o)
    0x00000e18   0x0000007c   Code   RO         5157    .text               c_w.l(_printf_longlong_dec.o)
    0x00000e94   0x00000070   Code   RO         5163    .text               c_w.l(_printf_oct_int_ll.o)
    0x00000f04   0x0000001c   Code   RO         5187    .text               c_w.l(_chval.o)
    0x00000f20   0x0000002c   Code   RO         5193    .text               c_w.l(scanf_char.o)
    0x00000f4c   0x00000040   Code   RO         5195    .text               c_w.l(_sgetc.o)
    0x00000f8c   0x000001d6   Code   RO         5209    .text               c_w.l(flsbuf.o)
    0x00001162   0x00000002   PAD
    0x00001164   0x000000f8   Code   RO         5211    .text               c_w.l(fseek.o)
    0x0000125c   0x00000046   Code   RO         5213    .text               c_w.l(setvbuf.o)
    0x000012a2   0x00000002   PAD
    0x000012a4   0x000000f0   Code   RO         5215    .text               c_w.l(stdio.o)
    0x00001394   0x00000138   Code   RO         5218    .text               c_w.l(initio.o)
    0x000014cc   0x00000016   Code   RO         5226    .text               c_w.l(abort.o)
    0x000014e2   0x0000000e   Code   RO         5228    .text               c_w.l(defsig_pvfn_outer.o)
    0x000014f0   0x00000004   Code   RO         5288    .text               cpprt_w.l(arm_newhandler_noexceptions.o)
    0x000014f4   0x0000000e   Code   RO         5415    .text               c_w.l(sys_wrch.o)
    0x00001502   0x00000002   PAD
    0x00001504   0x0000000c   Code   RO         5417    .text               c_w.l(sys_exit.o)
    0x00001510   0x00000008   Code   RO         5439    .text               c_w.l(rt_errno_addr.o)
    0x00001518   0x00000034   Code   RO         5448    .text               c_w.l(h1_extend.o)
    0x0000154c   0x0000008a   Code   RO         5452    .text               c_w.l(lludiv10.o)
    0x000015d6   0x00000012   Code   RO         5454    .text               c_w.l(isspace.o)
    0x000015e8   0x0000041a   Code   RO         5456    .text               c_w.l(_printf_fp_dec.o)
    0x00001a02   0x00000002   PAD
    0x00001a04   0x000002fc   Code   RO         5458    .text               c_w.l(_printf_fp_hex.o)
    0x00001d00   0x0000002c   Code   RO         5463    .text               c_w.l(_printf_char.o)
    0x00001d2c   0x0000002c   Code   RO         5467    .text               c_w.l(_printf_wchar.o)
    0x00001d58   0x00000374   Code   RO         5469    .text               c_w.l(_scanf.o)
    0x000020cc   0x00000042   Code   RO         5479    .text               c_w.l(ftell.o)
    0x0000210e   0x00000040   Code   RO         5505    .text               c_w.l(_wcrtomb.o)
    0x0000214e   0x0000000a   Code   RO         5507    .text               c_w.l(defsig_exit.o)
    0x00002158   0x0000000e   Code   RO         5509    .text               c_w.l(defsig_abrt_outer.o)
    0x00002166   0x0000000e   Code   RO         5513    .text               c_w.l(defsig_rtred_outer.o)
    0x00002174   0x0000000e   Code   RO         5517    .text               c_w.l(defsig_rtmem_outer.o)
    0x00002182   0x00000002   PAD
    0x00002184   0x00000030   Code   RO         5521    .text               c_w.l(defsig_pvfn_inner.o)
    0x000021b4   0x00000008   Code   RO         5530    .text               c_w.l(heapauxmm.o)
    0x000021bc   0x0000001a   Code   RO         5570    .text               cpprt_w.l(arm_exceptions_terminate.o)
    0x000021d6   0x00000002   PAD
    0x000021d8   0x00000050   Code   RO         5573    .text               cpprt_w.l(arm_exceptions_globs.o)
    0x00002228   0x00000002   Code   RO         5587    .text               c_w.l(use_no_semi.o)
    0x0000222a   0x00000000   Code   RO         5589    .text               c_w.l(indicate_semi.o)
    0x0000222a   0x00000002   PAD
    0x0000222c   0x00000010   Code   RO         5590    .text               c_w.l(rt_ctype_table.o)
    0x0000223c   0x00000008   Code   RO         5592    .text               c_w.l(rt_locale.o)
    0x00002244   0x00000008   Code   RO         5597    .text               c_w.l(rt_eh_globals_addr.o)
    0x0000224c   0x00000080   Code   RO         5604    .text               c_w.l(_printf_fp_infnan.o)
    0x000022cc   0x000000dc   Code   RO         5606    .text               c_w.l(bigflt0.o)
    0x000023a8   0x00000032   Code   RO         5638    .text               c_w.l(defsig_general.o)
    0x000023da   0x00000002   PAD
    0x000023dc   0x00000030   Code   RO         5640    .text               c_w.l(defsig_abrt_inner.o)
    0x0000240c   0x00000034   Code   RO         5642    .text               c_w.l(defsig_rtred_inner.o)
    0x00002440   0x00000050   Code   RO         5644    .text               c_w.l(defsig_rtmem_inner.o)
    0x00002490   0x0000003c   Code   RO         5659    .text               cpprt_w.l(arm_exceptions_mem.o)
    0x000024cc   0x0000003e   Code   RO         5609    CL$$btod_d2e        c_w.l(btod.o)
    0x0000250a   0x00000046   Code   RO         5611    CL$$btod_d2e_denorm_low  c_w.l(btod.o)
    0x00002550   0x00000060   Code   RO         5610    CL$$btod_d2e_norm_op1  c_w.l(btod.o)
    0x000025b0   0x00000338   Code   RO         5619    CL$$btod_div_common  c_w.l(btod.o)
    0x000028e8   0x000000c6   Code   RO         5616    CL$$btod_e2e        c_w.l(btod.o)
    0x000029ae   0x00000028   Code   RO         5613    CL$$btod_ediv       c_w.l(btod.o)
    0x000029d6   0x00000028   Code   RO         5612    CL$$btod_emul       c_w.l(btod.o)
    0x000029fe   0x00000244   Code   RO         5618    CL$$btod_mult_common  c_w.l(btod.o)
    0x00002c42   0x00000010   Code   RO         3870    i.$Sub$$main        mbed.lib(retarget.o)
    0x00002c52   0x00000002   PAD
    0x00002c54   0x00000040   Code   RO          829    i.NVIC_SetVector    cmsis_nvic.o
    0x00002c94   0x000002d4   Code   RO          884    i.SystemCoreClockUpdate  system_lpc407x_8x_177x_8x.o
    0x00002f68   0x000000ec   Code   RO          885    i.SystemInit        system_lpc407x_8x_177x_8x.o
    0x00003054   0x000000fc   Code   RO         3419    i._Z10sdram_initv   ebb.lib(sdram.o)
    0x00003150   0x0000005c   Code   RO         3420    i._Z10sdram_testv   ebb.lib(sdram.o)
    0x000031ac   0x00000048   Code   RO         3421    i._Z11calibrationv  ebb.lib(sdram.o)
    0x000031f4   0x00000084   Code   RO         3422    i._Z11find_cmddlyv  ebb.lib(sdram.o)
    0x00003278   0x00000020   Code   RO         3871    i._Z11init_serialv  mbed.lib(retarget.o)
    0x00003298   0x00000028   Code   RO         3120    i._Z11str_to_uintPcj  ebb.lib(ealcdboard.o)
    0x000032c0   0x00000084   Code   RO            3    i._Z12timerHandlerv  main.o
    0x00003344   0x00000058   Code   RO         3423    i._Z13adjust_timingv  ebb.lib(sdram.o)
    0x0000339c   0x00000084   Code   RO         3424    i._Z13find_fbclkdlyv  ebb.lib(sdram.o)
    0x00003420   0x00000048   Code   RO            6    i._Z9gpio_readP6gpio_t  main.o
    0x00003468   0x00000354   Code   RO         3426    i._Z9pinConfigv     ebb.lib(sdram.o)
    0x000037bc   0x0000000a   Code   RO         3121    i._Z9port_pin28PortNamei  ebb.lib(ealcdboard.o)
    0x000037c6   0x0000007e   Code   RO         3122    i._ZN10EaLcdBoard10eepromReadEPhtt  ebb.lib(ealcdboard.o)
    0x00003844   0x000000dc   Code   RO         3123    i._ZN10EaLcdBoard10execPinSetEPcj  ebb.lib(ealcdboard.o)
    0x00003920   0x00000058   Code   RO         3124    i._ZN10EaLcdBoard10getInitSeqEPci  ebb.lib(ealcdboard.o)
    0x00003978   0x00000084   Code   RO         3126    i._ZN10EaLcdBoard11execSeqCtrlEPcj  ebb.lib(ealcdboard.o)
    0x000039fc   0x00000020   Code   RO         3127    i._ZN10EaLcdBoard11set5VSignalEb  ebb.lib(ealcdboard.o)
    0x00003a1c   0x0000003e   Code   RO         3128    i._ZN10EaLcdBoard11setLsStatesEtPhh  ebb.lib(ealcdboard.o)
    0x00003a5a   0x00000022   Code   RO         3129    i._ZN10EaLcdBoard12checkVersionEPcj  ebb.lib(ealcdboard.o)
    0x00003a7c   0x000000dc   Code   RO         3130    i._ZN10EaLcdBoard12getLcdConfigEPN13LcdController6ConfigE  ebb.lib(ealcdboard.o)
    0x00003b58   0x00000020   Code   RO         3131    i._ZN10EaLcdBoard12set3V3SignalEb  ebb.lib(ealcdboard.o)
    0x00003b78   0x00000044   Code   RO         3134    i._ZN10EaLcdBoard14setFrameBufferEj  ebb.lib(ealcdboard.o)
    0x00003bbc   0x000000be   Code   RO         3136    i._ZN10EaLcdBoard15parseInitStringEPcPN13LcdController6ConfigE  ebb.lib(ealcdboard.o)
    0x00003c7a   0x0000002c   Code   RO         3137    i._ZN10EaLcdBoard15pca9532_setLedsEtt  ebb.lib(ealcdboard.o)
    0x00003ca6   0x0000002e   Code   RO         3141    i._ZN10EaLcdBoard20setBacklightContrastEj  ebb.lib(ealcdboard.o)
    0x00003cd4   0x00000036   Code   RO         3142    i._ZN10EaLcdBoard21pca9532_setBlink0DutyEh  ebb.lib(ealcdboard.o)
    0x00003d0a   0x00000018   Code   RO         3143    i._ZN10EaLcdBoard21pca9532_setBlink0LedsEt  ebb.lib(ealcdboard.o)
    0x00003d22   0x00000020   Code   RO         3144    i._ZN10EaLcdBoard22setDisplayEnableSignalEb  ebb.lib(ealcdboard.o)
    0x00003d42   0x00000022   Code   RO         3145    i._ZN10EaLcdBoard23pca9532_setBlink0PeriodEh  ebb.lib(ealcdboard.o)
    0x00003d64   0x0000004c   Code   RO         3146    i._ZN10EaLcdBoard4openEPN13LcdController6ConfigEPc  ebb.lib(ealcdboard.o)
    0x00003db0   0x0000006c   Code   RO         3148    i._ZN10EaLcdBoard7setLedsEv  ebb.lib(ealcdboard.o)
    0x00003e1c   0x00000028   Code   RO         3149    i._ZN10EaLcdBoard8getStoreEPNS_7store_tE  ebb.lib(ealcdboard.o)
    0x00003e44   0x0000001e   Code   RO         3150    i._ZN10EaLcdBoard9execDelayEPcj  ebb.lib(ealcdboard.o)
    0x00003e62   0x00000002   PAD
    0x00003e64   0x00000044   Code   RO         3151    i._ZN10EaLcdBoardC1E7PinNameS0_  ebb.lib(ealcdboard.o)
    0x00003ea8   0x00000034   Code   RO          605    i._ZN10QuaternionC1Ev  quaternion.o
    0x00003edc   0x0000003c   Code   RO          780    i._ZN10_CollisionC1Ev  physics.o
    0x00003f18   0x0000009c   Code   RO          777    i._ZN10_RigidBodyC1Ev  physics.o
    0x00003fb4   0x00000006   Code   RO         1341    i._ZN12Adafruit_GFX12setTextColorEtt  ebb.lib(adafruit_gfx.o)
    0x00003fba   0x0000002e   Code   RO         1343    i._ZN12Adafruit_GFX13drawFastVLineEssst  ebb.lib(adafruit_gfx.o)
    0x00003fe8   0x00000008   Code   RO         1349    i._ZN12Adafruit_GFX5widthEv  ebb.lib(adafruit_gfx.o)
    0x00003ff0   0x0000007a   Code   RO         1350    i._ZN12Adafruit_GFX5writeEh  ebb.lib(adafruit_gfx.o)
    0x0000406a   0x00000008   Code   RO         1351    i._ZN12Adafruit_GFX6heightEv  ebb.lib(adafruit_gfx.o)
    0x00004072   0x00000002   PAD
    0x00004074   0x00000104   Code   RO         1352    i._ZN12Adafruit_GFX8drawCharEsshtth  ebb.lib(adafruit_gfx.o)
    0x00004178   0x000000dc   Code   RO         1353    i._ZN12Adafruit_GFX8drawLineEsssst  ebb.lib(adafruit_gfx.o)
    0x00004254   0x00000036   Code   RO         1355    i._ZN12Adafruit_GFX8fillRectEsssst  ebb.lib(adafruit_gfx.o)
    0x0000428a   0x00000002   PAD
    0x0000428c   0x00000030   Code   RO         1357    i._ZN12Adafruit_GFXC2Ess  ebb.lib(adafruit_gfx.o)
    0x000042bc   0x00000018   Code   RO         4145    i._ZN13LcdController14setFrameBufferEj  ebb.lib(lcdcontroller.o)
    0x000042d4   0x0000003c   Code   RO         4146    i._ZN13LcdController15getClockDivisorEi  ebb.lib(lcdcontroller.o)
    0x00004310   0x000001c0   Code   RO         4147    i._ZN13LcdController4initEPNS_6ConfigE  ebb.lib(lcdcontroller.o)
    0x000044d0   0x00000048   Code   RO         4148    i._ZN13LcdController4openEPNS_6ConfigE  ebb.lib(lcdcontroller.o)
    0x00004518   0x00000060   Code   RO         2338    i._ZN13LcdController6ConfigC1EiiiiiiiibbbbiNS_12BitsPerPixelEiNS_8LcdPanelEb  ebb.lib(display.o)
    0x00004578   0x00000044   Code   RO         4150    i._ZN13LcdController8setPowerEb  ebb.lib(lcdcontroller.o)
    0x000045bc   0x0000015c   Code   RO         4151    i._ZN13LcdController9pinConfigEv  ebb.lib(lcdcontroller.o)
    0x00004718   0x00000006   Code   RO         4152    i._ZN13LcdControllerC1Ev  ebb.lib(lcdcontroller.o)
    0x0000471e   0x00000020   Code   RO         3005    i._ZN14EaLcdBoardGPIO11set5VSignalEb  ebb.lib(ealcdboardgpio.o)
    0x0000473e   0x00000020   Code   RO         3006    i._ZN14EaLcdBoardGPIO12set3V3SignalEb  ebb.lib(ealcdboardgpio.o)
    0x0000475e   0x00000002   Code   RO         3007    i._ZN14EaLcdBoardGPIO15setWriteProtectEb  ebb.lib(ealcdboardgpio.o)
    0x00004760   0x0000005c   Code   RO         3008    i._ZN14EaLcdBoardGPIO20setBacklightContrastEj  ebb.lib(ealcdboardgpio.o)
    0x000047bc   0x00000038   Code   RO         3009    i._ZN14EaLcdBoardGPIO22setDisplayEnableSignalEb  ebb.lib(ealcdboardgpio.o)
    0x000047f4   0x0000009c   Code   RO         3010    i._ZN14EaLcdBoardGPIOC1E7PinNameS0_  ebb.lib(ealcdboardgpio.o)
    0x00004890   0x0000001a   Code   RO         3059    i._ZN4mbed10DigitalOutC1E7PinName  ebb.lib(ealcdboardgpio.o)
    0x000048aa   0x00000002   PAD
    0x000048ac   0x0000005c   Code   RO         3053    i._ZN4mbed10DigitalOutaSEi  ebb.lib(ealcdboardgpio.o)
    0x00004908   0x0000003a   Code   RO         3538    i._ZN4mbed10FileHandle4flenEv  mbed.lib(filelike.o)
    0x00004942   0x00000010   Code   RO         1210    i._ZN4mbed10TimerEvent3irqEj  mbed.lib(timerevent.o)
    0x00004952   0x00000014   Code   RO         1211    i._ZN4mbed10TimerEvent6insertEj  mbed.lib(timerevent.o)
    0x00004966   0x0000000e   Code   RO         1212    i._ZN4mbed10TimerEvent6removeEv  mbed.lib(timerevent.o)
    0x00004974   0x0000002c   Code   RO         1214    i._ZN4mbed10TimerEventC2Ev  mbed.lib(timerevent.o)
    0x000049a0   0x00000018   Code   RO         1216    i._ZN4mbed10TimerEventD2Ev  mbed.lib(timerevent.o)
    0x000049b8   0x0000000e   Code   RO         3874    i._ZN4mbed26mbed_set_unbuffered_streamEPSt6__FILE  mbed.lib(retarget.o)
    0x000049c6   0x0000003a   Code   RO         2743    i._ZN4mbed3I2C4readEiPcib  mbed.lib(i2c.o)
    0x00004a00   0x0000003a   Code   RO         2747    i._ZN4mbed3I2C5writeEiPKcib  mbed.lib(i2c.o)
    0x00004a3a   0x00000002   PAD
    0x00004a3c   0x00000020   Code   RO         2748    i._ZN4mbed3I2C6aquireEv  mbed.lib(i2c.o)
    0x00004a5c   0x0000001c   Code   RO         2749    i._ZN4mbed3I2C9frequencyEi  mbed.lib(i2c.o)
    0x00004a78   0x0000002c   Code   RO         2750    i._ZN4mbed3I2CC1E7PinNameS1_  mbed.lib(i2c.o)
    0x00004aa4   0x00000006   Code   RO         2830    i._ZN4mbed6Stream4flenEv  mbed.lib(stream.o)
    0x00004aaa   0x00000006   Code   RO         2836    i._ZN4mbed6Stream5closeEv  mbed.lib(stream.o)
    0x00004ab0   0x00000006   Code   RO         2838    i._ZN4mbed6Stream5lseekEli  mbed.lib(stream.o)
    0x00004ab6   0x00000030   Code   RO         2840    i._ZN4mbed6Stream5writeEPKvj  mbed.lib(stream.o)
    0x00004ae6   0x00000006   Code   RO         2841    i._ZN4mbed6Stream6isattyEv  mbed.lib(stream.o)
    0x00004aec   0x00000048   Code   RO         2843    i._ZN4mbed6StreamC2EPKc  mbed.lib(stream.o)
    0x00004b34   0x00000022   Code   RO         1088    i._ZN4mbed6Ticker5setupEj  mbed.lib(ticker.o)
    0x00004b56   0x00000016   Code   RO         1089    i._ZN4mbed6Ticker6detachEv  mbed.lib(ticker.o)
    0x00004b6c   0x00000038   Code   RO         1090    i._ZN4mbed6Ticker7handlerEv  mbed.lib(ticker.o)
    0x00004ba4   0x00000006   Code   RO         4212    i._ZN4mbed8FileBase11getPathTypeEv  mbed.lib(filebase.o)
    0x00004baa   0x00000002   PAD
    0x00004bac   0x00000038   Code   RO         4214    i._ZN4mbed8FileBase6lookupEPKcj  mbed.lib(filebase.o)
    0x00004be4   0x00000028   Code   RO         4216    i._ZN4mbed8FileBaseC1EPKcNS_8PathTypeE  mbed.lib(filebase.o)
    0x00004c0c   0x0000002c   Code   RO         3506    i._ZN4mbed8FileLikeC2EPKc  mbed.lib(filelike.o)
    0x00004c38   0x00000014   Code   RO         4274    i._ZN4mbed8FilePath10fileSystemEv  mbed.lib(filepath.o)
    0x00004c4c   0x0000001c   Code   RO         4275    i._ZN4mbed8FilePath12isFileSystemEv  mbed.lib(filepath.o)
    0x00004c68   0x0000001e   Code   RO         4276    i._ZN4mbed8FilePath4fileEv  mbed.lib(filepath.o)
    0x00004c86   0x0000000e   Code   RO         4277    i._ZN4mbed8FilePath6existsEv  mbed.lib(filepath.o)
    0x00004c94   0x0000001c   Code   RO         4278    i._ZN4mbed8FilePath6isFileEv  mbed.lib(filepath.o)
    0x00004cb0   0x00000006   Code   RO         4279    i._ZN4mbed8FilePath8fileNameEv  mbed.lib(filepath.o)
    0x00004cb6   0x00000056   Code   RO         4280    i._ZN4mbed8FilePathC1EPKc  mbed.lib(filepath.o)
    0x00004d0c   0x0000001a   Code   RO           63    i._ZN4mbed9DigitalInC1E7PinName  main.o
    0x00004d26   0x00000026   Code   RO         3349    i._ZN5GFXFb10fillScreenEt  ebb.lib(gfxfb.o)
    0x00004d4c   0x00000068   Code   RO         3352    i._ZN5GFXFb13drawFastVLineEssst  ebb.lib(gfxfb.o)
    0x00004db4   0x00000046   Code   RO         3355    i._ZN5GFXFb9drawPixelEsst  ebb.lib(gfxfb.o)
    0x00004dfa   0x00000002   PAD
    0x00004dfc   0x00000028   Code   RO         3356    i._ZN5GFXFbC1EttPt  ebb.lib(gfxfb.o)
    0x00004e24   0x0000002c   Code   RO         2020    i._ZN5LM75BC1E7PinNameS0_NS_7AddressEi  ebb.lib(lm75b.o)
    0x00004e50   0x0000003c   Code   RO         2281    i._ZN7Display10theDisplayEv  ebb.lib(display.o)
    0x00004e8c   0x00000014   Code   RO         2283    i._ZN7Display5_putcEi  ebb.lib(display.o)
    0x00004ea0   0x00000150   Code   RO         2285    i._ZN7DisplayC1Ev   ebb.lib(display.o)
    0x00004ff0   0x00000024   Code   RO         1785    i._ZN7MMA7455C1E7PinNameS0_  ebb.lib(mma7455.o)
    0x00005014   0x00000028   Code   RO         4857    i._Znwj             cpprt_w.l(new.o)
    0x0000503c   0x00000030   Code   RO         5371    i.__ARM_fpclassify  m_wm.l(fpclassify.o)
    0x0000506c   0x00000024   Code   RO         4976    i.__aeabi_vec_ctor_nocookie_nodtor  cpprt_w.l(aeabi_vec_ctor_nocookie_nodtor.o)
    0x00005090   0x00000010   Code   RO         4864    i.__cxa_guard_acquire  cpprt_w.l(cxa_guard_acquire.o)
    0x000050a0   0x00000006   Code   RO         4861    i.__cxa_pure_virtual  cpprt_w.l(pure_virt.o)
    0x000050a6   0x00000006   Code   RO         3427    i.__reserved_stack_size  ebb.lib(sdram.o)
    0x000050ac   0x00000044   Code   RO         3428    i.__rt_heap_extend  ebb.lib(sdram.o)
    0x000050f0   0x00000030   Code   RO          646    i.__sti___11_Physics_cpp_Bodies  physics.o
    0x00005120   0x00000098   Code   RO            7    i.__sti___8_main_cpp_led1  main.o
    0x000051b8   0x00000030   Code   RO          920    i.__user_setup_stackheap  sys.o
    0x000051e8   0x00000026   Code   RO          982    i._gpio_init_in     mbed.lib(gpio.o)
    0x0000520e   0x00000034   Code   RO          983    i._gpio_init_out    mbed.lib(gpio.o)
    0x00005242   0x0000000e   Code   RO         4774    i._is_digit         c_w.l(__printf_wp.o)
    0x00005250   0x00000030   Code   RO         3877    i._sys_close        mbed.lib(retarget.o)
    0x00005280   0x0000002c   Code   RO         3880    i._sys_flen         mbed.lib(retarget.o)
    0x000052ac   0x0000002c   Code   RO         3881    i._sys_istty        mbed.lib(retarget.o)
    0x000052d8   0x00000130   Code   RO         3882    i._sys_open         mbed.lib(retarget.o)
    0x00005408   0x00000030   Code   RO         3884    i._sys_seek         mbed.lib(retarget.o)
    0x00005438   0x00000064   Code   RO         3885    i._sys_write        mbed.lib(retarget.o)
    0x0000549c   0x000000ac   Code   RO         1273    i.analogin_init     mbed.lib(analogin_api.o)
    0x00005548   0x00000020   Code   RO         2532    i.error             mbed.lib(error.o)
    0x00005568   0x00000020   Code   RO         3887    i.exit              mbed.lib(retarget.o)
    0x00005588   0x00000050   Code   RO          886    i.fpu_init          system_lpc407x_8x_177x_8x.o
    0x000055d8   0x0000001a   Code   RO         4801    i.fputc             c_w.l(fputc.o)
    0x000055f2   0x00000002   PAD
    0x000055f4   0x00000008   Code   RO         2675    i.get_us_ticker_data  mbed.lib(us_ticker_api.o)
    0x000055fc   0x00000090   Code   RO         2967    i.gpio_dir          mbed.lib(gpio_api.o)
    0x0000568c   0x00000038   Code   RO         2968    i.gpio_init         mbed.lib(gpio_api.o)
    0x000056c4   0x00000012   Code   RO          984    i.gpio_init_in      mbed.lib(gpio.o)
    0x000056d6   0x00000014   Code   RO          985    i.gpio_init_in_ex   mbed.lib(gpio.o)
    0x000056ea   0x00000012   Code   RO          987    i.gpio_init_out     mbed.lib(gpio.o)
    0x000056fc   0x00000016   Code   RO          988    i.gpio_init_out_ex  mbed.lib(gpio.o)
    0x00005712   0x00000012   Code   RO         2969    i.gpio_mode         mbed.lib(gpio_api.o)
    0x00005724   0x00000070   Code   RO         2970    i.gpio_set          mbed.lib(gpio_api.o)
    0x00005794   0x00000080   Code   RO          989    i.gpio_write        mbed.lib(gpio.o)
    0x00005814   0x00000080   Code   RO         4643    i.gpio_write        mbed.lib(board.o)
    0x00005894   0x00000016   Code   RO         3650    i.i2c_clear_SI      mbed.lib(i2c_api.o)
    0x000058aa   0x00000018   Code   RO         3651    i.i2c_conclr        mbed.lib(i2c_api.o)
    0x000058c2   0x00000018   Code   RO         3652    i.i2c_conset        mbed.lib(i2c_api.o)
    0x000058da   0x0000003e   Code   RO         3653    i.i2c_do_read       mbed.lib(i2c_api.o)
    0x00005918   0x00000020   Code   RO         3654    i.i2c_do_write      mbed.lib(i2c_api.o)
    0x00005938   0x0000001c   Code   RO         3655    i.i2c_frequency     mbed.lib(i2c_api.o)
    0x00005954   0x00000144   Code   RO         3656    i.i2c_init          mbed.lib(i2c_api.o)
    0x00005a98   0x000000b0   Code   RO         3657    i.i2c_read          mbed.lib(i2c_api.o)
    0x00005b48   0x00000048   Code   RO         3766    i.i2c_start         mbed.lib(i2c_api.o)
    0x00005b90   0x00000008   Code   RO         3664    i.i2c_status        mbed.lib(i2c_api.o)
    0x00005b98   0x00000040   Code   RO         3772    i.i2c_stop          mbed.lib(i2c_api.o)
    0x00005bd8   0x00000028   Code   RO         3665    i.i2c_wait_SI       mbed.lib(i2c_api.o)
    0x00005c00   0x00000082   Code   RO         3666    i.i2c_write         mbed.lib(i2c_api.o)
    0x00005c82   0x00000002   PAD
    0x00005c84   0x000000ac   Code   RO            8    i.main              main.o
    0x00005d30   0x0000004c   Code   RO          962    i.mbed_assert_internal  mbed.lib(assert.o)
    0x00005d7c   0x00000074   Code   RO         4644    i.mbed_die          mbed.lib(board.o)
    0x00005df0   0x00000002   Code   RO         3888    i.mbed_main         mbed.lib(retarget.o)
    0x00005df2   0x00000002   Code   RO         3889    i.mbed_sdk_init     mbed.lib(retarget.o)
    0x00005df4   0x00000074   Code   RO         3571    i.pin_function      mbed.lib(pinmap.o)
    0x00005e68   0x0000008c   Code   RO         3572    i.pin_mode          mbed.lib(pinmap.o)
    0x00005ef4   0x00000020   Code   RO         2570    i.pinmap_find_peripheral  mbed.lib(pinmap_common.o)
    0x00005f14   0x00000040   Code   RO         2572    i.pinmap_merge      mbed.lib(pinmap_common.o)
    0x00005f54   0x0000004c   Code   RO         2573    i.pinmap_peripheral  mbed.lib(pinmap_common.o)
    0x00005fa0   0x00000054   Code   RO         2574    i.pinmap_pinout     mbed.lib(pinmap_common.o)
    0x00005ff4   0x000000f4   Code   RO         3790    i.pwmout_init       mbed.lib(pwmout_api.o)
    0x000060e8   0x00000016   Code   RO         3792    i.pwmout_period_ms  mbed.lib(pwmout_api.o)
    0x000060fe   0x00000002   PAD
    0x00006100   0x00000044   Code   RO         3793    i.pwmout_period_us  mbed.lib(pwmout_api.o)
    0x00006144   0x00000068   Code   RO         3798    i.pwmout_write      mbed.lib(pwmout_api.o)
    0x000061ac   0x00000144   Code   RO         4478    i.serial_baud       mbed.lib(serial_api.o)
    0x000062f0   0x000000fc   Code   RO         4482    i.serial_format     mbed.lib(serial_api.o)
    0x000063ec   0x000001ac   Code   RO         4485    i.serial_init       mbed.lib(serial_api.o)
    0x00006598   0x00000018   Code   RO         4489    i.serial_putc       mbed.lib(serial_api.o)
    0x000065b0   0x0000000c   Code   RO         4491    i.serial_writable   mbed.lib(serial_api.o)
    0x000065bc   0x00000050   Code   RO         2620    i.ticker_insert_event  mbed.lib(ticker_api.o)
    0x0000660c   0x0000005a   Code   RO         2621    i.ticker_irq_handler  mbed.lib(ticker_api.o)
    0x00006666   0x0000000c   Code   RO         2622    i.ticker_read       mbed.lib(ticker_api.o)
    0x00006672   0x00000052   Code   RO         2623    i.ticker_remove_event  mbed.lib(ticker_api.o)
    0x000066c4   0x00000012   Code   RO         2624    i.ticker_set_handler  mbed.lib(ticker_api.o)
    0x000066d6   0x00000002   PAD
    0x000066d8   0x0000000c   Code   RO         3597    i.us_ticker_clear_interrupt  mbed.lib(us_ticker.o)
    0x000066e4   0x00000014   Code   RO         3598    i.us_ticker_disable_interrupt  mbed.lib(us_ticker.o)
    0x000066f8   0x00000074   Code   RO         3599    i.us_ticker_init    mbed.lib(us_ticker.o)
    0x0000676c   0x00000010   Code   RO         2676    i.us_ticker_irq_handler  mbed.lib(us_ticker_api.o)
    0x0000677c   0x0000001c   Code   RO         3600    i.us_ticker_read    mbed.lib(us_ticker.o)
    0x00006798   0x00000014   Code   RO         3601    i.us_ticker_set_interrupt  mbed.lib(us_ticker.o)
    0x000067ac   0x00000028   Code   RO         2707    i.wait              mbed.lib(wait_api.o)
    0x000067d4   0x00000012   Code   RO         2708    i.wait_ms           mbed.lib(wait_api.o)
    0x000067e6   0x00000018   Code   RO         2709    i.wait_us           mbed.lib(wait_api.o)
    0x000067fe   0x00000002   PAD
    0x00006800   0x0000002c   Code   RO         5634    locale$$code        c_w.l(lc_numeric_c.o)
    0x0000682c   0x0000002c   Code   RO         5695    locale$$code        c_w.l(lc_ctype_c.o)
    0x00006858   0x00000008   Code   RO           57    t._ZN4mbed19FunctionPointerArg1IvvE6attachEPFvvE  main.o
    0x00006860   0x0000000a   Code   RO         5585    x$fpl$fpinit        fz_wm.l(fpinit.o)
    0x0000686a   0x00000004   Code   RO         5329    x$fpl$printf1       fz_wm.l(printf1.o)
    0x0000686e   0x00000004   Code   RO         5331    x$fpl$printf2       fz_wm.l(printf2.o)
    0x00006872   0x00000000   Code   RO         5339    x$fpl$usenofp       fz_wm.l(usenofp.o)
    0x00006872   0x00000002   PAD
    0x00006874   0x0000006c   Data   RO         1277    .constdata          mbed.lib(analogin_api.o)
    0x000068e0   0x000004fb   Data   RO         1386    .constdata          ebb.lib(adafruit_gfx.o)
    0x00006ddb   0x00000001   PAD
    0x00006ddc   0x0000001c   Data   RO         2677    .constdata          mbed.lib(us_ticker_api.o)
    0x00006df8   0x00000128   Data   RO         3667    .constdata          mbed.lib(i2c_api.o)
    0x00006f20   0x00000190   Data   RO         3799    .constdata          mbed.lib(pwmout_api.o)
    0x000070b0   0x00000017   Data   RO         3931    .constdata          mbed.lib(retarget.o)
    0x000070c7   0x00000001   PAD
    0x000070c8   0x0000012c   Data   RO         4499    .constdata          mbed.lib(serial_api.o)
    0x000071f4   0x00000028   Data   RO         4762    .constdata          c_w.l(_printf_hex_int_ll_ptr.o)
    0x0000721c   0x00000011   Data   RO         4782    .constdata          c_w.l(__printf_flags_ss_wp.o)
    0x0000722d   0x00000003   PAD
    0x00007230   0x00000008   Data   RO         5155    .constdata          c_w.l(_printf_wctomb.o)
    0x00007238   0x00000026   Data   RO         5459    .constdata          c_w.l(_printf_fp_hex.o)
    0x0000725e   0x00000002   PAD
    0x00007260   0x00000094   Data   RO         5607    .constdata          c_w.l(bigflt0.o)
    0x000072f4   0x0000001c   Data   RO         3327    .constdata__ZTV10EaLcdBoard  ebb.lib(ealcdboard.o)
    0x00007310   0x0000002c   Data   RO         1526    .constdata__ZTV12Adafruit_GFX  ebb.lib(adafruit_gfx.o)
    0x0000733c   0x0000001c   Data   RO         3052    .constdata__ZTV14EaLcdBoardGPIO  ebb.lib(ealcdboardgpio.o)
    0x00007358   0x0000002c   Data   RO         3408    .constdata__ZTV5GFXFb  ebb.lib(gfxfb.o)
    0x00007384   0x00000070   Data   RO         2337    .constdata__ZTV7Display  ebb.lib(display.o)
    0x000073f4   0x0000002c   Data   RO         4097    .constdata__ZTVN4mbed10FileHandleE  mbed.lib(retarget.o)
    0x00007420   0x00000014   Data   RO         1260    .constdata__ZTVN4mbed10TimerEventE  mbed.lib(timerevent.o)
    0x00007434   0x00000044   Data   RO         2941    .constdata__ZTVN4mbed6StreamE  mbed.lib(stream.o)
    0x00007478   0x00000014   Data   RO         1116    .constdata__ZTVN4mbed6TickerE  mbed.lib(ticker.o)
    0x0000748c   0x00000010   Data   RO         4263    .constdata__ZTVN4mbed8FileBaseE  mbed.lib(filebase.o)
    0x0000749c   0x0000003c   Data   RO         3537    .constdata__ZTVN4mbed8FileLikeE  mbed.lib(filelike.o)
    0x000074d8   0x00000048   Data   RO           16    .conststring        main.o
    0x00007520   0x00000044   Data   RO         1278    .conststring        mbed.lib(analogin_api.o)
    0x00007564   0x00000042   Data   RO         3800    .conststring        mbed.lib(pwmout_api.o)
    0x000075a6   0x00000002   PAD
    0x000075a8   0x000000c6   Data   RO         4500    .conststring        mbed.lib(serial_api.o)
    0x0000766e   0x00000002   PAD
    0x00007670   0x00000000   Data   RO         5745    Region$$Table       anon$$obj.o
    0x00007670   0x0000001c   Data   RO         5633    locale$$data        c_w.l(lc_numeric_c.o)
    0x0000768c   0x00000110   Data   RO         5694    locale$$data        c_w.l(lc_ctype_c.o)
    0x0000779c   0x00000004   Data   RO           18    .init_array         main.o
    0x000077a0   0x00000004   Data   RO          659    .init_array         physics.o
    0x000077a4   0x00000000   Data   RO         4849    .init_array         c_w.l(init_aeabi.o)


    Execution Region RW_IRAM1 (Base: 0x100000e8, Size: 0x00001364, Max: 0x0000ff18, ABSOLUTE)

    Base Addr    Size         Type   Attr      Idx    E Section Name        Object

    0x100000e8   0x00000034   Data   RW           17    .data               main.o
    0x1000011c   0x00000010   Data   RW          887    .data               system_lpc407x_8x_177x_8x.o
    0x1000012c   0x00000008   Data   RW         2299    .data               ebb.lib(display.o)
    0x10000134   0x00000008   Data   RW         2678    .data               mbed.lib(us_ticker_api.o)
    0x1000013c   0x00000004   Data   RW         2760    .data               mbed.lib(i2c.o)
    0x10000140   0x00000010   Data   RW         3439    .data               ebb.lib(sdram.o)
    0x10000150   0x00000004   Data   RW         3602    .data               mbed.lib(us_ticker.o)
    0x10000154   0x00000004   Data   RW         3801    .data               mbed.lib(pwmout_api.o)
    0x10000158   0x00000001   Data   RW         4161    .data               ebb.lib(lcdcontroller.o)
    0x10000159   0x00000003   PAD
    0x1000015c   0x00000004   Data   RW         4226    .data               mbed.lib(filebase.o)
    0x10000160   0x00000010   Data   RW         4501    .data               mbed.lib(serial_api.o)
    0x10000170   0x00000004   Data   RW         4813    .data               c_w.l(stdio_streams.o)
    0x10000174   0x00000004   Data   RW         4814    .data               c_w.l(stdio_streams.o)
    0x10000178   0x00000004   Data   RW         4815    .data               c_w.l(stdio_streams.o)
    0x1000017c   0x000000c0   Zero   RW           15    .bss                main.o
    0x1000023c   0x00000cb0   Zero   RW          657    .bss                physics.o
    0x10000eec   0x00000400   Zero   RW         3184    .bss                ebb.lib(ealcdboard.o)
    0x100012ec   0x00000040   Zero   RW         3930    .bss                mbed.lib(retarget.o)
    0x1000132c   0x00000054   Zero   RW         4810    .bss                c_w.l(stdio_streams.o)
    0x10001380   0x00000054   Zero   RW         4811    .bss                c_w.l(stdio_streams.o)
    0x100013d4   0x00000054   Zero   RW         4812    .bss                c_w.l(stdio_streams.o)
    0x10001428   0x00000004   Zero   RW         5105    .bss                c_w.l(rt_heap_descriptor.o)
    0x1000142c   0x00000004   Zero   RW         5110    .bss                c_w.l(rt_new_handler_addr.o)
    0x10001430   0x00000004   Zero   RW         5440    .bss                c_w.l(rt_errno_addr.o)
    0x10001434   0x00000014   Zero   RW         5593    .bss                c_w.l(rt_locale.o)
    0x10001448   0x00000004   Zero   RW         5598    .bss                c_w.l(rt_eh_globals_addr.o)


    Execution Region RW_IRAM2 (Base: 0x20000000, Size: 0x00000000, Max: 0x00004000, ABSOLUTE)

    **** No section assigned to this execution region ****


    Execution Region RW_IRAM3 (Base: 0x20004000, Size: 0x00000000, Max: 0x00004000, ABSOLUTE)

    **** No section assigned to this execution region ****



  Load Region LR_IROM2 (Base: 0x28000000, Size: 0x00000000, Max: 0x01000000, ABSOLUTE)

    Execution Region ER_IROM2 (Base: 0x28000000, Size: 0x00000000, Max: 0x01000000, ABSOLUTE)

    **** No section assigned to this execution region ****

